ARM GAS  C:\Users\Admin\AppData\Local\Temp\ccFgkfnz.s 			page 1


   1              		.cpu cortex-m4
   2              		.eabi_attribute 27, 1
   3              		.eabi_attribute 28, 1
   4              		.eabi_attribute 20, 1
   5              		.eabi_attribute 21, 1
   6              		.eabi_attribute 23, 3
   7              		.eabi_attribute 24, 1
   8              		.eabi_attribute 25, 1
   9              		.eabi_attribute 26, 1
  10              		.eabi_attribute 30, 1
  11              		.eabi_attribute 34, 1
  12              		.eabi_attribute 18, 4
  13              		.file	"system_stm32f4xx.c"
  14              		.text
  15              	.Ltext0:
  16              		.cfi_sections	.debug_frame
  17              		.section	.text.SetSysClock,"ax",%progbits
  18              		.align	1
  19              		.arch armv7e-m
  20              		.syntax unified
  21              		.thumb
  22              		.thumb_func
  23              		.fpu fpv4-sp-d16
  25              	SetSysClock:
  26              	.LFB132:
  27              		.file 1 "Libraries/CMSIS/Device/ST/STM32F4xx/Source/Templates/system_stm32f4xx.c"
   1:Libraries/CMSIS/Device/ST/STM32F4xx/Source/Templates/system_stm32f4xx.c **** /**
   2:Libraries/CMSIS/Device/ST/STM32F4xx/Source/Templates/system_stm32f4xx.c ****   ******************************************************************************
   3:Libraries/CMSIS/Device/ST/STM32F4xx/Source/Templates/system_stm32f4xx.c ****   * @file    system_stm32f4xx.c
   4:Libraries/CMSIS/Device/ST/STM32F4xx/Source/Templates/system_stm32f4xx.c ****   * @author  MCD Application Team
   5:Libraries/CMSIS/Device/ST/STM32F4xx/Source/Templates/system_stm32f4xx.c ****   * @version V1.0.0
   6:Libraries/CMSIS/Device/ST/STM32F4xx/Source/Templates/system_stm32f4xx.c ****   * @date    30-September-2011
   7:Libraries/CMSIS/Device/ST/STM32F4xx/Source/Templates/system_stm32f4xx.c ****   * @brief   CMSIS Cortex-M4 Device Peripheral Access Layer System Source File.
   8:Libraries/CMSIS/Device/ST/STM32F4xx/Source/Templates/system_stm32f4xx.c ****   *          This file contains the system clock configuration for STM32F4xx devices,
   9:Libraries/CMSIS/Device/ST/STM32F4xx/Source/Templates/system_stm32f4xx.c ****   *          and is generated by the clock configuration tool
  10:Libraries/CMSIS/Device/ST/STM32F4xx/Source/Templates/system_stm32f4xx.c ****   *          stm32f4xx_Clock_Configuration_V1.0.0.xls
  11:Libraries/CMSIS/Device/ST/STM32F4xx/Source/Templates/system_stm32f4xx.c ****   *             
  12:Libraries/CMSIS/Device/ST/STM32F4xx/Source/Templates/system_stm32f4xx.c ****   * 1.  This file provides two functions and one global variable to be called from 
  13:Libraries/CMSIS/Device/ST/STM32F4xx/Source/Templates/system_stm32f4xx.c ****   *     user application:
  14:Libraries/CMSIS/Device/ST/STM32F4xx/Source/Templates/system_stm32f4xx.c ****   *      - SystemInit(): Setups the system clock (System clock source, PLL Multiplier
  15:Libraries/CMSIS/Device/ST/STM32F4xx/Source/Templates/system_stm32f4xx.c ****   *                      and Divider factors, AHB/APBx prescalers and Flash settings),
  16:Libraries/CMSIS/Device/ST/STM32F4xx/Source/Templates/system_stm32f4xx.c ****   *                      depending on the configuration made in the clock xls tool. 
  17:Libraries/CMSIS/Device/ST/STM32F4xx/Source/Templates/system_stm32f4xx.c ****   *                      This function is called at startup just after reset and 
  18:Libraries/CMSIS/Device/ST/STM32F4xx/Source/Templates/system_stm32f4xx.c ****   *                      before branch to main program. This call is made inside
  19:Libraries/CMSIS/Device/ST/STM32F4xx/Source/Templates/system_stm32f4xx.c ****   *                      the "startup_stm32f4xx.s" file.
  20:Libraries/CMSIS/Device/ST/STM32F4xx/Source/Templates/system_stm32f4xx.c ****   *
  21:Libraries/CMSIS/Device/ST/STM32F4xx/Source/Templates/system_stm32f4xx.c ****   *      - SystemCoreClock variable: Contains the core clock (HCLK), it can be used
  22:Libraries/CMSIS/Device/ST/STM32F4xx/Source/Templates/system_stm32f4xx.c ****   *                                  by the user application to setup the SysTick 
  23:Libraries/CMSIS/Device/ST/STM32F4xx/Source/Templates/system_stm32f4xx.c ****   *                                  timer or configure other parameters.
  24:Libraries/CMSIS/Device/ST/STM32F4xx/Source/Templates/system_stm32f4xx.c ****   *                                     
  25:Libraries/CMSIS/Device/ST/STM32F4xx/Source/Templates/system_stm32f4xx.c ****   *      - SystemCoreClockUpdate(): Updates the variable SystemCoreClock and must
  26:Libraries/CMSIS/Device/ST/STM32F4xx/Source/Templates/system_stm32f4xx.c ****   *                                 be called whenever the core clock is changed
  27:Libraries/CMSIS/Device/ST/STM32F4xx/Source/Templates/system_stm32f4xx.c ****   *                                 during program execution.
  28:Libraries/CMSIS/Device/ST/STM32F4xx/Source/Templates/system_stm32f4xx.c ****   *
  29:Libraries/CMSIS/Device/ST/STM32F4xx/Source/Templates/system_stm32f4xx.c ****   * 2. After each device reset the HSI (16 MHz) is used as system clock source.
  30:Libraries/CMSIS/Device/ST/STM32F4xx/Source/Templates/system_stm32f4xx.c ****   *    Then SystemInit() function is called, in "startup_stm32f4xx.s" file, to
  31:Libraries/CMSIS/Device/ST/STM32F4xx/Source/Templates/system_stm32f4xx.c ****   *    configure the system clock before to branch to main program.
ARM GAS  C:\Users\Admin\AppData\Local\Temp\ccFgkfnz.s 			page 2


  32:Libraries/CMSIS/Device/ST/STM32F4xx/Source/Templates/system_stm32f4xx.c ****   *
  33:Libraries/CMSIS/Device/ST/STM32F4xx/Source/Templates/system_stm32f4xx.c ****   * 3. If the system clock source selected by user fails to startup, the SystemInit()
  34:Libraries/CMSIS/Device/ST/STM32F4xx/Source/Templates/system_stm32f4xx.c ****   *    function will do nothing and HSI still used as system clock source. User can 
  35:Libraries/CMSIS/Device/ST/STM32F4xx/Source/Templates/system_stm32f4xx.c ****   *    add some code to deal with this issue inside the SetSysClock() function.
  36:Libraries/CMSIS/Device/ST/STM32F4xx/Source/Templates/system_stm32f4xx.c ****   *
  37:Libraries/CMSIS/Device/ST/STM32F4xx/Source/Templates/system_stm32f4xx.c ****   * 4. The default value of HSE crystal is set to 25MHz, refer to "HSE_VALUE" define
  38:Libraries/CMSIS/Device/ST/STM32F4xx/Source/Templates/system_stm32f4xx.c ****   *    in "stm32f4xx.h" file. When HSE is used as system clock source, directly or
  39:Libraries/CMSIS/Device/ST/STM32F4xx/Source/Templates/system_stm32f4xx.c ****   *    through PLL, and you are using different crystal you have to adapt the HSE
  40:Libraries/CMSIS/Device/ST/STM32F4xx/Source/Templates/system_stm32f4xx.c ****   *    value to your own configuration.
  41:Libraries/CMSIS/Device/ST/STM32F4xx/Source/Templates/system_stm32f4xx.c ****   *
  42:Libraries/CMSIS/Device/ST/STM32F4xx/Source/Templates/system_stm32f4xx.c ****   * 5. This file configures the system clock as follows:
  43:Libraries/CMSIS/Device/ST/STM32F4xx/Source/Templates/system_stm32f4xx.c ****   *=============================================================================
  44:Libraries/CMSIS/Device/ST/STM32F4xx/Source/Templates/system_stm32f4xx.c ****   *=============================================================================
  45:Libraries/CMSIS/Device/ST/STM32F4xx/Source/Templates/system_stm32f4xx.c ****   *        Supported STM32F4xx device revision    | Rev A
  46:Libraries/CMSIS/Device/ST/STM32F4xx/Source/Templates/system_stm32f4xx.c ****   *-----------------------------------------------------------------------------
  47:Libraries/CMSIS/Device/ST/STM32F4xx/Source/Templates/system_stm32f4xx.c ****   *        System Clock source                    | PLL (HSE)
  48:Libraries/CMSIS/Device/ST/STM32F4xx/Source/Templates/system_stm32f4xx.c ****   *-----------------------------------------------------------------------------
  49:Libraries/CMSIS/Device/ST/STM32F4xx/Source/Templates/system_stm32f4xx.c ****   *        SYSCLK(Hz)                             | 168000000
  50:Libraries/CMSIS/Device/ST/STM32F4xx/Source/Templates/system_stm32f4xx.c ****   *-----------------------------------------------------------------------------
  51:Libraries/CMSIS/Device/ST/STM32F4xx/Source/Templates/system_stm32f4xx.c ****   *        HCLK(Hz)                               | 168000000
  52:Libraries/CMSIS/Device/ST/STM32F4xx/Source/Templates/system_stm32f4xx.c ****   *-----------------------------------------------------------------------------
  53:Libraries/CMSIS/Device/ST/STM32F4xx/Source/Templates/system_stm32f4xx.c ****   *        AHB Prescaler                          | 1
  54:Libraries/CMSIS/Device/ST/STM32F4xx/Source/Templates/system_stm32f4xx.c ****   *-----------------------------------------------------------------------------
  55:Libraries/CMSIS/Device/ST/STM32F4xx/Source/Templates/system_stm32f4xx.c ****   *        APB1 Prescaler                         | 4
  56:Libraries/CMSIS/Device/ST/STM32F4xx/Source/Templates/system_stm32f4xx.c ****   *-----------------------------------------------------------------------------
  57:Libraries/CMSIS/Device/ST/STM32F4xx/Source/Templates/system_stm32f4xx.c ****   *        APB2 Prescaler                         | 2
  58:Libraries/CMSIS/Device/ST/STM32F4xx/Source/Templates/system_stm32f4xx.c ****   *-----------------------------------------------------------------------------
  59:Libraries/CMSIS/Device/ST/STM32F4xx/Source/Templates/system_stm32f4xx.c ****   *        HSE Frequency(Hz)                      | 25000000
  60:Libraries/CMSIS/Device/ST/STM32F4xx/Source/Templates/system_stm32f4xx.c ****   *-----------------------------------------------------------------------------
  61:Libraries/CMSIS/Device/ST/STM32F4xx/Source/Templates/system_stm32f4xx.c ****   *        PLL_M                                  | 25
  62:Libraries/CMSIS/Device/ST/STM32F4xx/Source/Templates/system_stm32f4xx.c ****   *-----------------------------------------------------------------------------
  63:Libraries/CMSIS/Device/ST/STM32F4xx/Source/Templates/system_stm32f4xx.c ****   *        PLL_N                                  | 336
  64:Libraries/CMSIS/Device/ST/STM32F4xx/Source/Templates/system_stm32f4xx.c ****   *-----------------------------------------------------------------------------
  65:Libraries/CMSIS/Device/ST/STM32F4xx/Source/Templates/system_stm32f4xx.c ****   *        PLL_P                                  | 2
  66:Libraries/CMSIS/Device/ST/STM32F4xx/Source/Templates/system_stm32f4xx.c ****   *-----------------------------------------------------------------------------
  67:Libraries/CMSIS/Device/ST/STM32F4xx/Source/Templates/system_stm32f4xx.c ****   *        PLL_Q                                  | 7
  68:Libraries/CMSIS/Device/ST/STM32F4xx/Source/Templates/system_stm32f4xx.c ****   *-----------------------------------------------------------------------------
  69:Libraries/CMSIS/Device/ST/STM32F4xx/Source/Templates/system_stm32f4xx.c ****   *        PLLI2S_N                               | NA
  70:Libraries/CMSIS/Device/ST/STM32F4xx/Source/Templates/system_stm32f4xx.c ****   *-----------------------------------------------------------------------------
  71:Libraries/CMSIS/Device/ST/STM32F4xx/Source/Templates/system_stm32f4xx.c ****   *        PLLI2S_R                               | NA
  72:Libraries/CMSIS/Device/ST/STM32F4xx/Source/Templates/system_stm32f4xx.c ****   *-----------------------------------------------------------------------------
  73:Libraries/CMSIS/Device/ST/STM32F4xx/Source/Templates/system_stm32f4xx.c ****   *        I2S input clock                        | NA
  74:Libraries/CMSIS/Device/ST/STM32F4xx/Source/Templates/system_stm32f4xx.c ****   *-----------------------------------------------------------------------------
  75:Libraries/CMSIS/Device/ST/STM32F4xx/Source/Templates/system_stm32f4xx.c ****   *        VDD(V)                                 | 3.3
  76:Libraries/CMSIS/Device/ST/STM32F4xx/Source/Templates/system_stm32f4xx.c ****   *-----------------------------------------------------------------------------
  77:Libraries/CMSIS/Device/ST/STM32F4xx/Source/Templates/system_stm32f4xx.c ****   *        Main regulator output voltage          | Scale1 mode
  78:Libraries/CMSIS/Device/ST/STM32F4xx/Source/Templates/system_stm32f4xx.c ****   *-----------------------------------------------------------------------------
  79:Libraries/CMSIS/Device/ST/STM32F4xx/Source/Templates/system_stm32f4xx.c ****   *        Flash Latency(WS)                      | 5
  80:Libraries/CMSIS/Device/ST/STM32F4xx/Source/Templates/system_stm32f4xx.c ****   *-----------------------------------------------------------------------------
  81:Libraries/CMSIS/Device/ST/STM32F4xx/Source/Templates/system_stm32f4xx.c ****   *        Prefetch Buffer                        | OFF
  82:Libraries/CMSIS/Device/ST/STM32F4xx/Source/Templates/system_stm32f4xx.c ****   *-----------------------------------------------------------------------------
  83:Libraries/CMSIS/Device/ST/STM32F4xx/Source/Templates/system_stm32f4xx.c ****   *        Instruction cache                      | ON
  84:Libraries/CMSIS/Device/ST/STM32F4xx/Source/Templates/system_stm32f4xx.c ****   *-----------------------------------------------------------------------------
  85:Libraries/CMSIS/Device/ST/STM32F4xx/Source/Templates/system_stm32f4xx.c ****   *        Data cache                             | ON
  86:Libraries/CMSIS/Device/ST/STM32F4xx/Source/Templates/system_stm32f4xx.c ****   *-----------------------------------------------------------------------------
  87:Libraries/CMSIS/Device/ST/STM32F4xx/Source/Templates/system_stm32f4xx.c ****   *        Require 48MHz for USB OTG FS,          | Enabled
  88:Libraries/CMSIS/Device/ST/STM32F4xx/Source/Templates/system_stm32f4xx.c ****   *        SDIO and RNG clock                     |
ARM GAS  C:\Users\Admin\AppData\Local\Temp\ccFgkfnz.s 			page 3


  89:Libraries/CMSIS/Device/ST/STM32F4xx/Source/Templates/system_stm32f4xx.c ****   *-----------------------------------------------------------------------------
  90:Libraries/CMSIS/Device/ST/STM32F4xx/Source/Templates/system_stm32f4xx.c ****   *=============================================================================
  91:Libraries/CMSIS/Device/ST/STM32F4xx/Source/Templates/system_stm32f4xx.c ****   ****************************************************************************** 
  92:Libraries/CMSIS/Device/ST/STM32F4xx/Source/Templates/system_stm32f4xx.c ****   * @attention
  93:Libraries/CMSIS/Device/ST/STM32F4xx/Source/Templates/system_stm32f4xx.c ****   *
  94:Libraries/CMSIS/Device/ST/STM32F4xx/Source/Templates/system_stm32f4xx.c ****   * THE PRESENT FIRMWARE WHICH IS FOR GUIDANCE ONLY AIMS AT PROVIDING CUSTOMERS
  95:Libraries/CMSIS/Device/ST/STM32F4xx/Source/Templates/system_stm32f4xx.c ****   * WITH CODING INFORMATION REGARDING THEIR PRODUCTS IN ORDER FOR THEM TO SAVE
  96:Libraries/CMSIS/Device/ST/STM32F4xx/Source/Templates/system_stm32f4xx.c ****   * TIME. AS A RESULT, STMICROELECTRONICS SHALL NOT BE HELD LIABLE FOR ANY
  97:Libraries/CMSIS/Device/ST/STM32F4xx/Source/Templates/system_stm32f4xx.c ****   * DIRECT, INDIRECT OR CONSEQUENTIAL DAMAGES WITH RESPECT TO ANY CLAIMS ARISING
  98:Libraries/CMSIS/Device/ST/STM32F4xx/Source/Templates/system_stm32f4xx.c ****   * FROM THE CONTENT OF SUCH FIRMWARE AND/OR THE USE MADE BY CUSTOMERS OF THE
  99:Libraries/CMSIS/Device/ST/STM32F4xx/Source/Templates/system_stm32f4xx.c ****   * CODING INFORMATION CONTAINED HEREIN IN CONNECTION WITH THEIR PRODUCTS.
 100:Libraries/CMSIS/Device/ST/STM32F4xx/Source/Templates/system_stm32f4xx.c ****   *
 101:Libraries/CMSIS/Device/ST/STM32F4xx/Source/Templates/system_stm32f4xx.c ****   * <h2><center>&copy; COPYRIGHT 2011 STMicroelectronics</center></h2>
 102:Libraries/CMSIS/Device/ST/STM32F4xx/Source/Templates/system_stm32f4xx.c ****   ******************************************************************************
 103:Libraries/CMSIS/Device/ST/STM32F4xx/Source/Templates/system_stm32f4xx.c ****   */
 104:Libraries/CMSIS/Device/ST/STM32F4xx/Source/Templates/system_stm32f4xx.c **** 
 105:Libraries/CMSIS/Device/ST/STM32F4xx/Source/Templates/system_stm32f4xx.c **** /** @addtogroup CMSIS
 106:Libraries/CMSIS/Device/ST/STM32F4xx/Source/Templates/system_stm32f4xx.c ****   * @{
 107:Libraries/CMSIS/Device/ST/STM32F4xx/Source/Templates/system_stm32f4xx.c ****   */
 108:Libraries/CMSIS/Device/ST/STM32F4xx/Source/Templates/system_stm32f4xx.c **** 
 109:Libraries/CMSIS/Device/ST/STM32F4xx/Source/Templates/system_stm32f4xx.c **** /** @addtogroup stm32f4xx_system
 110:Libraries/CMSIS/Device/ST/STM32F4xx/Source/Templates/system_stm32f4xx.c ****   * @{
 111:Libraries/CMSIS/Device/ST/STM32F4xx/Source/Templates/system_stm32f4xx.c ****   */  
 112:Libraries/CMSIS/Device/ST/STM32F4xx/Source/Templates/system_stm32f4xx.c ****   
 113:Libraries/CMSIS/Device/ST/STM32F4xx/Source/Templates/system_stm32f4xx.c **** /** @addtogroup STM32F4xx_System_Private_Includes
 114:Libraries/CMSIS/Device/ST/STM32F4xx/Source/Templates/system_stm32f4xx.c ****   * @{
 115:Libraries/CMSIS/Device/ST/STM32F4xx/Source/Templates/system_stm32f4xx.c ****   */
 116:Libraries/CMSIS/Device/ST/STM32F4xx/Source/Templates/system_stm32f4xx.c **** 
 117:Libraries/CMSIS/Device/ST/STM32F4xx/Source/Templates/system_stm32f4xx.c **** #include "stm32f4xx.h"
 118:Libraries/CMSIS/Device/ST/STM32F4xx/Source/Templates/system_stm32f4xx.c **** 
 119:Libraries/CMSIS/Device/ST/STM32F4xx/Source/Templates/system_stm32f4xx.c **** /**
 120:Libraries/CMSIS/Device/ST/STM32F4xx/Source/Templates/system_stm32f4xx.c ****   * @}
 121:Libraries/CMSIS/Device/ST/STM32F4xx/Source/Templates/system_stm32f4xx.c ****   */
 122:Libraries/CMSIS/Device/ST/STM32F4xx/Source/Templates/system_stm32f4xx.c **** 
 123:Libraries/CMSIS/Device/ST/STM32F4xx/Source/Templates/system_stm32f4xx.c **** /** @addtogroup STM32F4xx_System_Private_TypesDefinitions
 124:Libraries/CMSIS/Device/ST/STM32F4xx/Source/Templates/system_stm32f4xx.c ****   * @{
 125:Libraries/CMSIS/Device/ST/STM32F4xx/Source/Templates/system_stm32f4xx.c ****   */
 126:Libraries/CMSIS/Device/ST/STM32F4xx/Source/Templates/system_stm32f4xx.c **** 
 127:Libraries/CMSIS/Device/ST/STM32F4xx/Source/Templates/system_stm32f4xx.c **** /**
 128:Libraries/CMSIS/Device/ST/STM32F4xx/Source/Templates/system_stm32f4xx.c ****   * @}
 129:Libraries/CMSIS/Device/ST/STM32F4xx/Source/Templates/system_stm32f4xx.c ****   */
 130:Libraries/CMSIS/Device/ST/STM32F4xx/Source/Templates/system_stm32f4xx.c **** 
 131:Libraries/CMSIS/Device/ST/STM32F4xx/Source/Templates/system_stm32f4xx.c **** /** @addtogroup STM32F4xx_System_Private_Defines
 132:Libraries/CMSIS/Device/ST/STM32F4xx/Source/Templates/system_stm32f4xx.c ****   * @{
 133:Libraries/CMSIS/Device/ST/STM32F4xx/Source/Templates/system_stm32f4xx.c ****   */
 134:Libraries/CMSIS/Device/ST/STM32F4xx/Source/Templates/system_stm32f4xx.c **** 
 135:Libraries/CMSIS/Device/ST/STM32F4xx/Source/Templates/system_stm32f4xx.c **** /************************* Miscellaneous Configuration ************************/
 136:Libraries/CMSIS/Device/ST/STM32F4xx/Source/Templates/system_stm32f4xx.c **** /*!< Uncomment the following line if you need to use external SRAM mounted
 137:Libraries/CMSIS/Device/ST/STM32F4xx/Source/Templates/system_stm32f4xx.c ****      on STM324xG_EVAL board as data memory  */
 138:Libraries/CMSIS/Device/ST/STM32F4xx/Source/Templates/system_stm32f4xx.c **** /* #define DATA_IN_ExtSRAM */
 139:Libraries/CMSIS/Device/ST/STM32F4xx/Source/Templates/system_stm32f4xx.c **** 
 140:Libraries/CMSIS/Device/ST/STM32F4xx/Source/Templates/system_stm32f4xx.c **** /*!< Uncomment the following line if you need to relocate your vector Table in
 141:Libraries/CMSIS/Device/ST/STM32F4xx/Source/Templates/system_stm32f4xx.c ****      Internal SRAM. */
 142:Libraries/CMSIS/Device/ST/STM32F4xx/Source/Templates/system_stm32f4xx.c **** /* #define VECT_TAB_SRAM */
 143:Libraries/CMSIS/Device/ST/STM32F4xx/Source/Templates/system_stm32f4xx.c **** #define VECT_TAB_OFFSET  0x00 /*!< Vector Table base offset field. 
 144:Libraries/CMSIS/Device/ST/STM32F4xx/Source/Templates/system_stm32f4xx.c ****                                    This value must be a multiple of 0x200. */
 145:Libraries/CMSIS/Device/ST/STM32F4xx/Source/Templates/system_stm32f4xx.c **** /******************************************************************************/
ARM GAS  C:\Users\Admin\AppData\Local\Temp\ccFgkfnz.s 			page 4


 146:Libraries/CMSIS/Device/ST/STM32F4xx/Source/Templates/system_stm32f4xx.c **** 
 147:Libraries/CMSIS/Device/ST/STM32F4xx/Source/Templates/system_stm32f4xx.c **** /************************* PLL Parameters *************************************/
 148:Libraries/CMSIS/Device/ST/STM32F4xx/Source/Templates/system_stm32f4xx.c **** /* PLL_VCO = (HSE_VALUE or HSI_VALUE / PLL_M) * PLL_N */
 149:Libraries/CMSIS/Device/ST/STM32F4xx/Source/Templates/system_stm32f4xx.c **** #define PLL_M      8
 150:Libraries/CMSIS/Device/ST/STM32F4xx/Source/Templates/system_stm32f4xx.c **** #define PLL_N      336
 151:Libraries/CMSIS/Device/ST/STM32F4xx/Source/Templates/system_stm32f4xx.c **** 
 152:Libraries/CMSIS/Device/ST/STM32F4xx/Source/Templates/system_stm32f4xx.c **** /* SYSCLK = PLL_VCO / PLL_P */
 153:Libraries/CMSIS/Device/ST/STM32F4xx/Source/Templates/system_stm32f4xx.c **** #define PLL_P      2
 154:Libraries/CMSIS/Device/ST/STM32F4xx/Source/Templates/system_stm32f4xx.c **** 
 155:Libraries/CMSIS/Device/ST/STM32F4xx/Source/Templates/system_stm32f4xx.c **** /* USB OTG FS, SDIO and RNG Clock =  PLL_VCO / PLLQ */
 156:Libraries/CMSIS/Device/ST/STM32F4xx/Source/Templates/system_stm32f4xx.c **** #define PLL_Q      4
 157:Libraries/CMSIS/Device/ST/STM32F4xx/Source/Templates/system_stm32f4xx.c **** 
 158:Libraries/CMSIS/Device/ST/STM32F4xx/Source/Templates/system_stm32f4xx.c **** /******************************************************************************/
 159:Libraries/CMSIS/Device/ST/STM32F4xx/Source/Templates/system_stm32f4xx.c **** 
 160:Libraries/CMSIS/Device/ST/STM32F4xx/Source/Templates/system_stm32f4xx.c **** /**
 161:Libraries/CMSIS/Device/ST/STM32F4xx/Source/Templates/system_stm32f4xx.c ****   * @}
 162:Libraries/CMSIS/Device/ST/STM32F4xx/Source/Templates/system_stm32f4xx.c ****   */
 163:Libraries/CMSIS/Device/ST/STM32F4xx/Source/Templates/system_stm32f4xx.c **** 
 164:Libraries/CMSIS/Device/ST/STM32F4xx/Source/Templates/system_stm32f4xx.c **** /** @addtogroup STM32F4xx_System_Private_Macros
 165:Libraries/CMSIS/Device/ST/STM32F4xx/Source/Templates/system_stm32f4xx.c ****   * @{
 166:Libraries/CMSIS/Device/ST/STM32F4xx/Source/Templates/system_stm32f4xx.c ****   */
 167:Libraries/CMSIS/Device/ST/STM32F4xx/Source/Templates/system_stm32f4xx.c **** 
 168:Libraries/CMSIS/Device/ST/STM32F4xx/Source/Templates/system_stm32f4xx.c **** /**
 169:Libraries/CMSIS/Device/ST/STM32F4xx/Source/Templates/system_stm32f4xx.c ****   * @}
 170:Libraries/CMSIS/Device/ST/STM32F4xx/Source/Templates/system_stm32f4xx.c ****   */
 171:Libraries/CMSIS/Device/ST/STM32F4xx/Source/Templates/system_stm32f4xx.c **** 
 172:Libraries/CMSIS/Device/ST/STM32F4xx/Source/Templates/system_stm32f4xx.c **** /** @addtogroup STM32F4xx_System_Private_Variables
 173:Libraries/CMSIS/Device/ST/STM32F4xx/Source/Templates/system_stm32f4xx.c ****   * @{
 174:Libraries/CMSIS/Device/ST/STM32F4xx/Source/Templates/system_stm32f4xx.c ****   */
 175:Libraries/CMSIS/Device/ST/STM32F4xx/Source/Templates/system_stm32f4xx.c **** 
 176:Libraries/CMSIS/Device/ST/STM32F4xx/Source/Templates/system_stm32f4xx.c ****   uint32_t SystemCoreClock = 168000000;
 177:Libraries/CMSIS/Device/ST/STM32F4xx/Source/Templates/system_stm32f4xx.c **** 
 178:Libraries/CMSIS/Device/ST/STM32F4xx/Source/Templates/system_stm32f4xx.c ****   __I uint8_t AHBPrescTable[16] = {0, 0, 0, 0, 0, 0, 0, 0, 1, 2, 3, 4, 6, 7, 8, 9};
 179:Libraries/CMSIS/Device/ST/STM32F4xx/Source/Templates/system_stm32f4xx.c **** 
 180:Libraries/CMSIS/Device/ST/STM32F4xx/Source/Templates/system_stm32f4xx.c **** /**
 181:Libraries/CMSIS/Device/ST/STM32F4xx/Source/Templates/system_stm32f4xx.c ****   * @}
 182:Libraries/CMSIS/Device/ST/STM32F4xx/Source/Templates/system_stm32f4xx.c ****   */
 183:Libraries/CMSIS/Device/ST/STM32F4xx/Source/Templates/system_stm32f4xx.c **** 
 184:Libraries/CMSIS/Device/ST/STM32F4xx/Source/Templates/system_stm32f4xx.c **** /** @addtogroup STM32F4xx_System_Private_FunctionPrototypes
 185:Libraries/CMSIS/Device/ST/STM32F4xx/Source/Templates/system_stm32f4xx.c ****   * @{
 186:Libraries/CMSIS/Device/ST/STM32F4xx/Source/Templates/system_stm32f4xx.c ****   */
 187:Libraries/CMSIS/Device/ST/STM32F4xx/Source/Templates/system_stm32f4xx.c **** 
 188:Libraries/CMSIS/Device/ST/STM32F4xx/Source/Templates/system_stm32f4xx.c **** static void SetSysClock(void);
 189:Libraries/CMSIS/Device/ST/STM32F4xx/Source/Templates/system_stm32f4xx.c **** #ifdef DATA_IN_ExtSRAM
 190:Libraries/CMSIS/Device/ST/STM32F4xx/Source/Templates/system_stm32f4xx.c ****   static void SystemInit_ExtMemCtl(void); 
 191:Libraries/CMSIS/Device/ST/STM32F4xx/Source/Templates/system_stm32f4xx.c **** #endif /* DATA_IN_ExtSRAM */
 192:Libraries/CMSIS/Device/ST/STM32F4xx/Source/Templates/system_stm32f4xx.c **** 
 193:Libraries/CMSIS/Device/ST/STM32F4xx/Source/Templates/system_stm32f4xx.c **** /**
 194:Libraries/CMSIS/Device/ST/STM32F4xx/Source/Templates/system_stm32f4xx.c ****   * @}
 195:Libraries/CMSIS/Device/ST/STM32F4xx/Source/Templates/system_stm32f4xx.c ****   */
 196:Libraries/CMSIS/Device/ST/STM32F4xx/Source/Templates/system_stm32f4xx.c **** 
 197:Libraries/CMSIS/Device/ST/STM32F4xx/Source/Templates/system_stm32f4xx.c **** /** @addtogroup STM32F4xx_System_Private_Functions
 198:Libraries/CMSIS/Device/ST/STM32F4xx/Source/Templates/system_stm32f4xx.c ****   * @{
 199:Libraries/CMSIS/Device/ST/STM32F4xx/Source/Templates/system_stm32f4xx.c ****   */
 200:Libraries/CMSIS/Device/ST/STM32F4xx/Source/Templates/system_stm32f4xx.c **** 
 201:Libraries/CMSIS/Device/ST/STM32F4xx/Source/Templates/system_stm32f4xx.c **** /**
 202:Libraries/CMSIS/Device/ST/STM32F4xx/Source/Templates/system_stm32f4xx.c ****   * @brief  Setup the microcontroller system
ARM GAS  C:\Users\Admin\AppData\Local\Temp\ccFgkfnz.s 			page 5


 203:Libraries/CMSIS/Device/ST/STM32F4xx/Source/Templates/system_stm32f4xx.c ****   *         Initialize the Embedded Flash Interface, the PLL and update the 
 204:Libraries/CMSIS/Device/ST/STM32F4xx/Source/Templates/system_stm32f4xx.c ****   *         SystemFrequency variable.
 205:Libraries/CMSIS/Device/ST/STM32F4xx/Source/Templates/system_stm32f4xx.c ****   * @param  None
 206:Libraries/CMSIS/Device/ST/STM32F4xx/Source/Templates/system_stm32f4xx.c ****   * @retval None
 207:Libraries/CMSIS/Device/ST/STM32F4xx/Source/Templates/system_stm32f4xx.c ****   */
 208:Libraries/CMSIS/Device/ST/STM32F4xx/Source/Templates/system_stm32f4xx.c **** void SystemInit(void)
 209:Libraries/CMSIS/Device/ST/STM32F4xx/Source/Templates/system_stm32f4xx.c **** {
 210:Libraries/CMSIS/Device/ST/STM32F4xx/Source/Templates/system_stm32f4xx.c ****   /* FPU settings ------------------------------------------------------------*/
 211:Libraries/CMSIS/Device/ST/STM32F4xx/Source/Templates/system_stm32f4xx.c ****   #if (__FPU_PRESENT == 1) && (__FPU_USED == 1)
 212:Libraries/CMSIS/Device/ST/STM32F4xx/Source/Templates/system_stm32f4xx.c ****     SCB->CPACR |= ((3UL << 10*2)|(3UL << 11*2));  /* set CP10 and CP11 Full Access */
 213:Libraries/CMSIS/Device/ST/STM32F4xx/Source/Templates/system_stm32f4xx.c ****   #endif
 214:Libraries/CMSIS/Device/ST/STM32F4xx/Source/Templates/system_stm32f4xx.c **** 
 215:Libraries/CMSIS/Device/ST/STM32F4xx/Source/Templates/system_stm32f4xx.c ****   /* Reset the RCC clock configuration to the default reset state ------------*/
 216:Libraries/CMSIS/Device/ST/STM32F4xx/Source/Templates/system_stm32f4xx.c ****   /* Set HSION bit */
 217:Libraries/CMSIS/Device/ST/STM32F4xx/Source/Templates/system_stm32f4xx.c ****   RCC->CR |= (uint32_t)0x00000001;
 218:Libraries/CMSIS/Device/ST/STM32F4xx/Source/Templates/system_stm32f4xx.c **** 
 219:Libraries/CMSIS/Device/ST/STM32F4xx/Source/Templates/system_stm32f4xx.c ****   /* Reset CFGR register */
 220:Libraries/CMSIS/Device/ST/STM32F4xx/Source/Templates/system_stm32f4xx.c ****   RCC->CFGR = 0x00000000;
 221:Libraries/CMSIS/Device/ST/STM32F4xx/Source/Templates/system_stm32f4xx.c **** 
 222:Libraries/CMSIS/Device/ST/STM32F4xx/Source/Templates/system_stm32f4xx.c ****   /* Reset HSEON, CSSON and PLLON bits */
 223:Libraries/CMSIS/Device/ST/STM32F4xx/Source/Templates/system_stm32f4xx.c ****   RCC->CR &= (uint32_t)0xFEF6FFFF;
 224:Libraries/CMSIS/Device/ST/STM32F4xx/Source/Templates/system_stm32f4xx.c **** 
 225:Libraries/CMSIS/Device/ST/STM32F4xx/Source/Templates/system_stm32f4xx.c ****   /* Reset PLLCFGR register */
 226:Libraries/CMSIS/Device/ST/STM32F4xx/Source/Templates/system_stm32f4xx.c ****   RCC->PLLCFGR = 0x24003010;
 227:Libraries/CMSIS/Device/ST/STM32F4xx/Source/Templates/system_stm32f4xx.c **** 
 228:Libraries/CMSIS/Device/ST/STM32F4xx/Source/Templates/system_stm32f4xx.c ****   /* Reset HSEBYP bit */
 229:Libraries/CMSIS/Device/ST/STM32F4xx/Source/Templates/system_stm32f4xx.c ****   RCC->CR &= (uint32_t)0xFFFBFFFF;
 230:Libraries/CMSIS/Device/ST/STM32F4xx/Source/Templates/system_stm32f4xx.c **** 
 231:Libraries/CMSIS/Device/ST/STM32F4xx/Source/Templates/system_stm32f4xx.c ****   /* Disable all interrupts */
 232:Libraries/CMSIS/Device/ST/STM32F4xx/Source/Templates/system_stm32f4xx.c ****   RCC->CIR = 0x00000000;
 233:Libraries/CMSIS/Device/ST/STM32F4xx/Source/Templates/system_stm32f4xx.c **** 
 234:Libraries/CMSIS/Device/ST/STM32F4xx/Source/Templates/system_stm32f4xx.c **** #ifdef DATA_IN_ExtSRAM
 235:Libraries/CMSIS/Device/ST/STM32F4xx/Source/Templates/system_stm32f4xx.c ****   SystemInit_ExtMemCtl(); 
 236:Libraries/CMSIS/Device/ST/STM32F4xx/Source/Templates/system_stm32f4xx.c **** #endif /* DATA_IN_ExtSRAM */
 237:Libraries/CMSIS/Device/ST/STM32F4xx/Source/Templates/system_stm32f4xx.c ****          
 238:Libraries/CMSIS/Device/ST/STM32F4xx/Source/Templates/system_stm32f4xx.c ****   /* Configure the System clock source, PLL Multiplier and Divider factors, 
 239:Libraries/CMSIS/Device/ST/STM32F4xx/Source/Templates/system_stm32f4xx.c ****      AHB/APBx prescalers and Flash settings ----------------------------------*/
 240:Libraries/CMSIS/Device/ST/STM32F4xx/Source/Templates/system_stm32f4xx.c ****   SetSysClock();
 241:Libraries/CMSIS/Device/ST/STM32F4xx/Source/Templates/system_stm32f4xx.c **** 
 242:Libraries/CMSIS/Device/ST/STM32F4xx/Source/Templates/system_stm32f4xx.c ****   /* Configure the Vector Table location add offset address ------------------*/
 243:Libraries/CMSIS/Device/ST/STM32F4xx/Source/Templates/system_stm32f4xx.c **** #ifdef VECT_TAB_SRAM
 244:Libraries/CMSIS/Device/ST/STM32F4xx/Source/Templates/system_stm32f4xx.c ****   SCB->VTOR = SRAM_BASE | VECT_TAB_OFFSET; /* Vector Table Relocation in Internal SRAM */
 245:Libraries/CMSIS/Device/ST/STM32F4xx/Source/Templates/system_stm32f4xx.c **** #else
 246:Libraries/CMSIS/Device/ST/STM32F4xx/Source/Templates/system_stm32f4xx.c ****   SCB->VTOR = FLASH_BASE | VECT_TAB_OFFSET; /* Vector Table Relocation in Internal FLASH */
 247:Libraries/CMSIS/Device/ST/STM32F4xx/Source/Templates/system_stm32f4xx.c **** #endif
 248:Libraries/CMSIS/Device/ST/STM32F4xx/Source/Templates/system_stm32f4xx.c **** }
 249:Libraries/CMSIS/Device/ST/STM32F4xx/Source/Templates/system_stm32f4xx.c **** 
 250:Libraries/CMSIS/Device/ST/STM32F4xx/Source/Templates/system_stm32f4xx.c **** /**
 251:Libraries/CMSIS/Device/ST/STM32F4xx/Source/Templates/system_stm32f4xx.c ****    * @brief  Update SystemCoreClock variable according to Clock Register Values.
 252:Libraries/CMSIS/Device/ST/STM32F4xx/Source/Templates/system_stm32f4xx.c ****   *         The SystemCoreClock variable contains the core clock (HCLK), it can
 253:Libraries/CMSIS/Device/ST/STM32F4xx/Source/Templates/system_stm32f4xx.c ****   *         be used by the user application to setup the SysTick timer or configure
 254:Libraries/CMSIS/Device/ST/STM32F4xx/Source/Templates/system_stm32f4xx.c ****   *         other parameters.
 255:Libraries/CMSIS/Device/ST/STM32F4xx/Source/Templates/system_stm32f4xx.c ****   *           
 256:Libraries/CMSIS/Device/ST/STM32F4xx/Source/Templates/system_stm32f4xx.c ****   * @note   Each time the core clock (HCLK) changes, this function must be called
 257:Libraries/CMSIS/Device/ST/STM32F4xx/Source/Templates/system_stm32f4xx.c ****   *         to update SystemCoreClock variable value. Otherwise, any configuration
 258:Libraries/CMSIS/Device/ST/STM32F4xx/Source/Templates/system_stm32f4xx.c ****   *         based on this variable will be incorrect.         
 259:Libraries/CMSIS/Device/ST/STM32F4xx/Source/Templates/system_stm32f4xx.c ****   *     
ARM GAS  C:\Users\Admin\AppData\Local\Temp\ccFgkfnz.s 			page 6


 260:Libraries/CMSIS/Device/ST/STM32F4xx/Source/Templates/system_stm32f4xx.c ****   * @note   - The system frequency computed by this function is not the real 
 261:Libraries/CMSIS/Device/ST/STM32F4xx/Source/Templates/system_stm32f4xx.c ****   *           frequency in the chip. It is calculated based on the predefined 
 262:Libraries/CMSIS/Device/ST/STM32F4xx/Source/Templates/system_stm32f4xx.c ****   *           constant and the selected clock source:
 263:Libraries/CMSIS/Device/ST/STM32F4xx/Source/Templates/system_stm32f4xx.c ****   *             
 264:Libraries/CMSIS/Device/ST/STM32F4xx/Source/Templates/system_stm32f4xx.c ****   *           - If SYSCLK source is HSI, SystemCoreClock will contain the HSI_VALUE(*)
 265:Libraries/CMSIS/Device/ST/STM32F4xx/Source/Templates/system_stm32f4xx.c ****   *                                              
 266:Libraries/CMSIS/Device/ST/STM32F4xx/Source/Templates/system_stm32f4xx.c ****   *           - If SYSCLK source is HSE, SystemCoreClock will contain the HSE_VALUE(**)
 267:Libraries/CMSIS/Device/ST/STM32F4xx/Source/Templates/system_stm32f4xx.c ****   *                          
 268:Libraries/CMSIS/Device/ST/STM32F4xx/Source/Templates/system_stm32f4xx.c ****   *           - If SYSCLK source is PLL, SystemCoreClock will contain the HSE_VALUE(**) 
 269:Libraries/CMSIS/Device/ST/STM32F4xx/Source/Templates/system_stm32f4xx.c ****   *             or HSI_VALUE(*) multiplied/divided by the PLL factors.
 270:Libraries/CMSIS/Device/ST/STM32F4xx/Source/Templates/system_stm32f4xx.c ****   *         
 271:Libraries/CMSIS/Device/ST/STM32F4xx/Source/Templates/system_stm32f4xx.c ****   *         (*) HSI_VALUE is a constant defined in stm32f4xx.h file (default value
 272:Libraries/CMSIS/Device/ST/STM32F4xx/Source/Templates/system_stm32f4xx.c ****   *             16 MHz) but the real value may vary depending on the variations
 273:Libraries/CMSIS/Device/ST/STM32F4xx/Source/Templates/system_stm32f4xx.c ****   *             in voltage and temperature.   
 274:Libraries/CMSIS/Device/ST/STM32F4xx/Source/Templates/system_stm32f4xx.c ****   *    
 275:Libraries/CMSIS/Device/ST/STM32F4xx/Source/Templates/system_stm32f4xx.c ****   *         (**) HSE_VALUE is a constant defined in stm32f4xx.h file (default value
 276:Libraries/CMSIS/Device/ST/STM32F4xx/Source/Templates/system_stm32f4xx.c ****   *              25 MHz), user has to ensure that HSE_VALUE is same as the real
 277:Libraries/CMSIS/Device/ST/STM32F4xx/Source/Templates/system_stm32f4xx.c ****   *              frequency of the crystal used. Otherwise, this function may
 278:Libraries/CMSIS/Device/ST/STM32F4xx/Source/Templates/system_stm32f4xx.c ****   *              have wrong result.
 279:Libraries/CMSIS/Device/ST/STM32F4xx/Source/Templates/system_stm32f4xx.c ****   *                
 280:Libraries/CMSIS/Device/ST/STM32F4xx/Source/Templates/system_stm32f4xx.c ****   *         - The result of this function could be not correct when using fractional
 281:Libraries/CMSIS/Device/ST/STM32F4xx/Source/Templates/system_stm32f4xx.c ****   *           value for HSE crystal.
 282:Libraries/CMSIS/Device/ST/STM32F4xx/Source/Templates/system_stm32f4xx.c ****   *     
 283:Libraries/CMSIS/Device/ST/STM32F4xx/Source/Templates/system_stm32f4xx.c ****   * @param  None
 284:Libraries/CMSIS/Device/ST/STM32F4xx/Source/Templates/system_stm32f4xx.c ****   * @retval None
 285:Libraries/CMSIS/Device/ST/STM32F4xx/Source/Templates/system_stm32f4xx.c ****   */
 286:Libraries/CMSIS/Device/ST/STM32F4xx/Source/Templates/system_stm32f4xx.c **** void SystemCoreClockUpdate(void)
 287:Libraries/CMSIS/Device/ST/STM32F4xx/Source/Templates/system_stm32f4xx.c **** {
 288:Libraries/CMSIS/Device/ST/STM32F4xx/Source/Templates/system_stm32f4xx.c ****   uint32_t tmp = 0, pllvco = 0, pllp = 2, pllsource = 0, pllm = 2;
 289:Libraries/CMSIS/Device/ST/STM32F4xx/Source/Templates/system_stm32f4xx.c ****   
 290:Libraries/CMSIS/Device/ST/STM32F4xx/Source/Templates/system_stm32f4xx.c ****   /* Get SYSCLK source -------------------------------------------------------*/
 291:Libraries/CMSIS/Device/ST/STM32F4xx/Source/Templates/system_stm32f4xx.c ****   tmp = RCC->CFGR & RCC_CFGR_SWS;
 292:Libraries/CMSIS/Device/ST/STM32F4xx/Source/Templates/system_stm32f4xx.c **** 
 293:Libraries/CMSIS/Device/ST/STM32F4xx/Source/Templates/system_stm32f4xx.c ****   switch (tmp)
 294:Libraries/CMSIS/Device/ST/STM32F4xx/Source/Templates/system_stm32f4xx.c ****   {
 295:Libraries/CMSIS/Device/ST/STM32F4xx/Source/Templates/system_stm32f4xx.c ****     case 0x00:  /* HSI used as system clock source */
 296:Libraries/CMSIS/Device/ST/STM32F4xx/Source/Templates/system_stm32f4xx.c ****       SystemCoreClock = HSI_VALUE;
 297:Libraries/CMSIS/Device/ST/STM32F4xx/Source/Templates/system_stm32f4xx.c ****       break;
 298:Libraries/CMSIS/Device/ST/STM32F4xx/Source/Templates/system_stm32f4xx.c ****     case 0x04:  /* HSE used as system clock source */
 299:Libraries/CMSIS/Device/ST/STM32F4xx/Source/Templates/system_stm32f4xx.c ****       SystemCoreClock = HSE_VALUE;
 300:Libraries/CMSIS/Device/ST/STM32F4xx/Source/Templates/system_stm32f4xx.c ****       break;
 301:Libraries/CMSIS/Device/ST/STM32F4xx/Source/Templates/system_stm32f4xx.c ****     case 0x08:  /* PLL used as system clock source */
 302:Libraries/CMSIS/Device/ST/STM32F4xx/Source/Templates/system_stm32f4xx.c **** 
 303:Libraries/CMSIS/Device/ST/STM32F4xx/Source/Templates/system_stm32f4xx.c ****       /* PLL_VCO = (HSE_VALUE or HSI_VALUE / PLL_M) * PLL_N
 304:Libraries/CMSIS/Device/ST/STM32F4xx/Source/Templates/system_stm32f4xx.c ****          SYSCLK = PLL_VCO / PLL_P
 305:Libraries/CMSIS/Device/ST/STM32F4xx/Source/Templates/system_stm32f4xx.c ****          */    
 306:Libraries/CMSIS/Device/ST/STM32F4xx/Source/Templates/system_stm32f4xx.c ****       pllsource = (RCC->PLLCFGR & RCC_PLLCFGR_PLLSRC) >> 22;
 307:Libraries/CMSIS/Device/ST/STM32F4xx/Source/Templates/system_stm32f4xx.c ****       pllm = RCC->PLLCFGR & RCC_PLLCFGR_PLLM;
 308:Libraries/CMSIS/Device/ST/STM32F4xx/Source/Templates/system_stm32f4xx.c ****       
 309:Libraries/CMSIS/Device/ST/STM32F4xx/Source/Templates/system_stm32f4xx.c ****       if (pllsource != 0)
 310:Libraries/CMSIS/Device/ST/STM32F4xx/Source/Templates/system_stm32f4xx.c ****       {
 311:Libraries/CMSIS/Device/ST/STM32F4xx/Source/Templates/system_stm32f4xx.c ****         /* HSE used as PLL clock source */
 312:Libraries/CMSIS/Device/ST/STM32F4xx/Source/Templates/system_stm32f4xx.c ****         pllvco = (HSE_VALUE / pllm) * ((RCC->PLLCFGR & RCC_PLLCFGR_PLLN) >> 6);
 313:Libraries/CMSIS/Device/ST/STM32F4xx/Source/Templates/system_stm32f4xx.c ****       }
 314:Libraries/CMSIS/Device/ST/STM32F4xx/Source/Templates/system_stm32f4xx.c ****       else
 315:Libraries/CMSIS/Device/ST/STM32F4xx/Source/Templates/system_stm32f4xx.c ****       {
 316:Libraries/CMSIS/Device/ST/STM32F4xx/Source/Templates/system_stm32f4xx.c ****         /* HSI used as PLL clock source */
ARM GAS  C:\Users\Admin\AppData\Local\Temp\ccFgkfnz.s 			page 7


 317:Libraries/CMSIS/Device/ST/STM32F4xx/Source/Templates/system_stm32f4xx.c ****         pllvco = (HSI_VALUE / pllm) * ((RCC->PLLCFGR & RCC_PLLCFGR_PLLN) >> 6);      
 318:Libraries/CMSIS/Device/ST/STM32F4xx/Source/Templates/system_stm32f4xx.c ****       }
 319:Libraries/CMSIS/Device/ST/STM32F4xx/Source/Templates/system_stm32f4xx.c **** 
 320:Libraries/CMSIS/Device/ST/STM32F4xx/Source/Templates/system_stm32f4xx.c ****       pllp = (((RCC->PLLCFGR & RCC_PLLCFGR_PLLP) >>16) + 1 ) *2;
 321:Libraries/CMSIS/Device/ST/STM32F4xx/Source/Templates/system_stm32f4xx.c ****       SystemCoreClock = pllvco/pllp;
 322:Libraries/CMSIS/Device/ST/STM32F4xx/Source/Templates/system_stm32f4xx.c ****       break;
 323:Libraries/CMSIS/Device/ST/STM32F4xx/Source/Templates/system_stm32f4xx.c ****     default:
 324:Libraries/CMSIS/Device/ST/STM32F4xx/Source/Templates/system_stm32f4xx.c ****       SystemCoreClock = HSI_VALUE;
 325:Libraries/CMSIS/Device/ST/STM32F4xx/Source/Templates/system_stm32f4xx.c ****       break;
 326:Libraries/CMSIS/Device/ST/STM32F4xx/Source/Templates/system_stm32f4xx.c ****   }
 327:Libraries/CMSIS/Device/ST/STM32F4xx/Source/Templates/system_stm32f4xx.c ****   /* Compute HCLK frequency --------------------------------------------------*/
 328:Libraries/CMSIS/Device/ST/STM32F4xx/Source/Templates/system_stm32f4xx.c ****   /* Get HCLK prescaler */
 329:Libraries/CMSIS/Device/ST/STM32F4xx/Source/Templates/system_stm32f4xx.c ****   tmp = AHBPrescTable[((RCC->CFGR & RCC_CFGR_HPRE) >> 4)];
 330:Libraries/CMSIS/Device/ST/STM32F4xx/Source/Templates/system_stm32f4xx.c ****   /* HCLK frequency */
 331:Libraries/CMSIS/Device/ST/STM32F4xx/Source/Templates/system_stm32f4xx.c ****   SystemCoreClock >>= tmp;
 332:Libraries/CMSIS/Device/ST/STM32F4xx/Source/Templates/system_stm32f4xx.c **** }
 333:Libraries/CMSIS/Device/ST/STM32F4xx/Source/Templates/system_stm32f4xx.c **** 
 334:Libraries/CMSIS/Device/ST/STM32F4xx/Source/Templates/system_stm32f4xx.c **** /**
 335:Libraries/CMSIS/Device/ST/STM32F4xx/Source/Templates/system_stm32f4xx.c ****   * @brief  Configures the System clock source, PLL Multiplier and Divider factors, 
 336:Libraries/CMSIS/Device/ST/STM32F4xx/Source/Templates/system_stm32f4xx.c ****   *         AHB/APBx prescalers and Flash settings
 337:Libraries/CMSIS/Device/ST/STM32F4xx/Source/Templates/system_stm32f4xx.c ****   * @Note   This function should be called only once the RCC clock configuration  
 338:Libraries/CMSIS/Device/ST/STM32F4xx/Source/Templates/system_stm32f4xx.c ****   *         is reset to the default reset state (done in SystemInit() function).   
 339:Libraries/CMSIS/Device/ST/STM32F4xx/Source/Templates/system_stm32f4xx.c ****   * @param  None
 340:Libraries/CMSIS/Device/ST/STM32F4xx/Source/Templates/system_stm32f4xx.c ****   * @retval None
 341:Libraries/CMSIS/Device/ST/STM32F4xx/Source/Templates/system_stm32f4xx.c ****   */
 342:Libraries/CMSIS/Device/ST/STM32F4xx/Source/Templates/system_stm32f4xx.c **** static void SetSysClock(void)
 343:Libraries/CMSIS/Device/ST/STM32F4xx/Source/Templates/system_stm32f4xx.c **** {
  28              		.loc 1 343 1 view -0
  29              		.cfi_startproc
  30              		@ args = 0, pretend = 0, frame = 8
  31              		@ frame_needed = 0, uses_anonymous_args = 0
  32              		@ link register save eliminated.
  33 0000 82B0     		sub	sp, sp, #8
  34              	.LCFI0:
  35              		.cfi_def_cfa_offset 8
 344:Libraries/CMSIS/Device/ST/STM32F4xx/Source/Templates/system_stm32f4xx.c **** /******************************************************************************/
 345:Libraries/CMSIS/Device/ST/STM32F4xx/Source/Templates/system_stm32f4xx.c **** /*            PLL (clocked by HSE) used as System clock source                */
 346:Libraries/CMSIS/Device/ST/STM32F4xx/Source/Templates/system_stm32f4xx.c **** /******************************************************************************/
 347:Libraries/CMSIS/Device/ST/STM32F4xx/Source/Templates/system_stm32f4xx.c ****   __IO uint32_t StartUpCounter = 0, HSEStatus = 0;
  36              		.loc 1 347 3 view .LVU1
  37              		.loc 1 347 17 is_stmt 0 view .LVU2
  38 0002 0023     		movs	r3, #0
  39 0004 0193     		str	r3, [sp, #4]
  40              		.loc 1 347 37 view .LVU3
  41 0006 0093     		str	r3, [sp]
 348:Libraries/CMSIS/Device/ST/STM32F4xx/Source/Templates/system_stm32f4xx.c ****   
 349:Libraries/CMSIS/Device/ST/STM32F4xx/Source/Templates/system_stm32f4xx.c ****   /* Enable HSE */
 350:Libraries/CMSIS/Device/ST/STM32F4xx/Source/Templates/system_stm32f4xx.c ****   RCC->CR |= ((uint32_t)RCC_CR_HSEON);
  42              		.loc 1 350 3 is_stmt 1 view .LVU4
  43              		.loc 1 350 11 is_stmt 0 view .LVU5
  44 0008 2A4A     		ldr	r2, .L11
  45 000a 1368     		ldr	r3, [r2]
  46 000c 43F48033 		orr	r3, r3, #65536
  47 0010 1360     		str	r3, [r2]
  48              	.L3:
 351:Libraries/CMSIS/Device/ST/STM32F4xx/Source/Templates/system_stm32f4xx.c ****  
 352:Libraries/CMSIS/Device/ST/STM32F4xx/Source/Templates/system_stm32f4xx.c ****   /* Wait till HSE is ready and if Time out is reached exit */
ARM GAS  C:\Users\Admin\AppData\Local\Temp\ccFgkfnz.s 			page 8


 353:Libraries/CMSIS/Device/ST/STM32F4xx/Source/Templates/system_stm32f4xx.c ****   do
  49              		.loc 1 353 3 is_stmt 1 discriminator 2 view .LVU6
 354:Libraries/CMSIS/Device/ST/STM32F4xx/Source/Templates/system_stm32f4xx.c ****   {
 355:Libraries/CMSIS/Device/ST/STM32F4xx/Source/Templates/system_stm32f4xx.c ****     HSEStatus = RCC->CR & RCC_CR_HSERDY;
  50              		.loc 1 355 5 discriminator 2 view .LVU7
  51              		.loc 1 355 20 is_stmt 0 discriminator 2 view .LVU8
  52 0012 284B     		ldr	r3, .L11
  53 0014 1B68     		ldr	r3, [r3]
  54              		.loc 1 355 25 discriminator 2 view .LVU9
  55 0016 03F40033 		and	r3, r3, #131072
  56              		.loc 1 355 15 discriminator 2 view .LVU10
  57 001a 0093     		str	r3, [sp]
 356:Libraries/CMSIS/Device/ST/STM32F4xx/Source/Templates/system_stm32f4xx.c ****     StartUpCounter++;
  58              		.loc 1 356 5 is_stmt 1 discriminator 2 view .LVU11
  59              		.loc 1 356 19 is_stmt 0 discriminator 2 view .LVU12
  60 001c 019B     		ldr	r3, [sp, #4]
  61 001e 0133     		adds	r3, r3, #1
  62 0020 0193     		str	r3, [sp, #4]
 357:Libraries/CMSIS/Device/ST/STM32F4xx/Source/Templates/system_stm32f4xx.c ****   } while((HSEStatus == 0) && (StartUpCounter != HSE_STARTUP_TIMEOUT));
  63              		.loc 1 357 10 is_stmt 1 discriminator 2 view .LVU13
  64              		.loc 1 357 22 is_stmt 0 discriminator 2 view .LVU14
  65 0022 009B     		ldr	r3, [sp]
  66              		.loc 1 357 3 discriminator 2 view .LVU15
  67 0024 1BB9     		cbnz	r3, .L2
  68              		.loc 1 357 47 discriminator 1 view .LVU16
  69 0026 019B     		ldr	r3, [sp, #4]
  70              		.loc 1 357 28 discriminator 1 view .LVU17
  71 0028 B3F5A06F 		cmp	r3, #1280
  72 002c F1D1     		bne	.L3
  73              	.L2:
 358:Libraries/CMSIS/Device/ST/STM32F4xx/Source/Templates/system_stm32f4xx.c **** 
 359:Libraries/CMSIS/Device/ST/STM32F4xx/Source/Templates/system_stm32f4xx.c ****   if ((RCC->CR & RCC_CR_HSERDY) != RESET)
  74              		.loc 1 359 3 is_stmt 1 view .LVU18
  75              		.loc 1 359 11 is_stmt 0 view .LVU19
  76 002e 214B     		ldr	r3, .L11
  77 0030 1B68     		ldr	r3, [r3]
  78              		.loc 1 359 6 view .LVU20
  79 0032 13F4003F 		tst	r3, #131072
  80 0036 06D0     		beq	.L4
 360:Libraries/CMSIS/Device/ST/STM32F4xx/Source/Templates/system_stm32f4xx.c ****   {
 361:Libraries/CMSIS/Device/ST/STM32F4xx/Source/Templates/system_stm32f4xx.c ****     HSEStatus = (uint32_t)0x01;
  81              		.loc 1 361 5 is_stmt 1 view .LVU21
  82              		.loc 1 361 15 is_stmt 0 view .LVU22
  83 0038 0123     		movs	r3, #1
  84 003a 0093     		str	r3, [sp]
  85              	.L5:
 362:Libraries/CMSIS/Device/ST/STM32F4xx/Source/Templates/system_stm32f4xx.c ****   }
 363:Libraries/CMSIS/Device/ST/STM32F4xx/Source/Templates/system_stm32f4xx.c ****   else
 364:Libraries/CMSIS/Device/ST/STM32F4xx/Source/Templates/system_stm32f4xx.c ****   {
 365:Libraries/CMSIS/Device/ST/STM32F4xx/Source/Templates/system_stm32f4xx.c ****     HSEStatus = (uint32_t)0x00;
 366:Libraries/CMSIS/Device/ST/STM32F4xx/Source/Templates/system_stm32f4xx.c ****   }
 367:Libraries/CMSIS/Device/ST/STM32F4xx/Source/Templates/system_stm32f4xx.c **** 
 368:Libraries/CMSIS/Device/ST/STM32F4xx/Source/Templates/system_stm32f4xx.c ****   if (HSEStatus == (uint32_t)0x01)
  86              		.loc 1 368 3 is_stmt 1 view .LVU23
  87              		.loc 1 368 17 is_stmt 0 view .LVU24
  88 003c 009B     		ldr	r3, [sp]
  89              		.loc 1 368 6 view .LVU25
ARM GAS  C:\Users\Admin\AppData\Local\Temp\ccFgkfnz.s 			page 9


  90 003e 012B     		cmp	r3, #1
  91 0040 04D0     		beq	.L10
  92              	.L1:
 369:Libraries/CMSIS/Device/ST/STM32F4xx/Source/Templates/system_stm32f4xx.c ****   {
 370:Libraries/CMSIS/Device/ST/STM32F4xx/Source/Templates/system_stm32f4xx.c ****     /* Select regulator voltage output Scale 1 mode, System frequency up to 168 MHz */
 371:Libraries/CMSIS/Device/ST/STM32F4xx/Source/Templates/system_stm32f4xx.c ****     RCC->APB1ENR |= RCC_APB1ENR_PWREN;
 372:Libraries/CMSIS/Device/ST/STM32F4xx/Source/Templates/system_stm32f4xx.c ****     PWR->CR |= PWR_CR_VOS;
 373:Libraries/CMSIS/Device/ST/STM32F4xx/Source/Templates/system_stm32f4xx.c **** 
 374:Libraries/CMSIS/Device/ST/STM32F4xx/Source/Templates/system_stm32f4xx.c ****     /* HCLK = SYSCLK / 1*/
 375:Libraries/CMSIS/Device/ST/STM32F4xx/Source/Templates/system_stm32f4xx.c ****     RCC->CFGR |= RCC_CFGR_HPRE_DIV1;
 376:Libraries/CMSIS/Device/ST/STM32F4xx/Source/Templates/system_stm32f4xx.c ****       
 377:Libraries/CMSIS/Device/ST/STM32F4xx/Source/Templates/system_stm32f4xx.c ****     /* PCLK2 = HCLK / 2*/
 378:Libraries/CMSIS/Device/ST/STM32F4xx/Source/Templates/system_stm32f4xx.c ****     RCC->CFGR |= RCC_CFGR_PPRE2_DIV2;
 379:Libraries/CMSIS/Device/ST/STM32F4xx/Source/Templates/system_stm32f4xx.c ****     
 380:Libraries/CMSIS/Device/ST/STM32F4xx/Source/Templates/system_stm32f4xx.c ****     /* PCLK1 = HCLK / 4*/
 381:Libraries/CMSIS/Device/ST/STM32F4xx/Source/Templates/system_stm32f4xx.c ****     RCC->CFGR |= RCC_CFGR_PPRE1_DIV4;
 382:Libraries/CMSIS/Device/ST/STM32F4xx/Source/Templates/system_stm32f4xx.c **** 
 383:Libraries/CMSIS/Device/ST/STM32F4xx/Source/Templates/system_stm32f4xx.c ****     /* Configure the main PLL */
 384:Libraries/CMSIS/Device/ST/STM32F4xx/Source/Templates/system_stm32f4xx.c ****     RCC->PLLCFGR = PLL_M | (PLL_N << 6) | (((PLL_P >> 1) -1) << 16) |
 385:Libraries/CMSIS/Device/ST/STM32F4xx/Source/Templates/system_stm32f4xx.c ****                    (RCC_PLLCFGR_PLLSRC_HSE) | (PLL_Q << 24);
 386:Libraries/CMSIS/Device/ST/STM32F4xx/Source/Templates/system_stm32f4xx.c **** 
 387:Libraries/CMSIS/Device/ST/STM32F4xx/Source/Templates/system_stm32f4xx.c ****     /* Enable the main PLL */
 388:Libraries/CMSIS/Device/ST/STM32F4xx/Source/Templates/system_stm32f4xx.c ****     RCC->CR |= RCC_CR_PLLON;
 389:Libraries/CMSIS/Device/ST/STM32F4xx/Source/Templates/system_stm32f4xx.c **** 
 390:Libraries/CMSIS/Device/ST/STM32F4xx/Source/Templates/system_stm32f4xx.c ****     /* Wait till the main PLL is ready */
 391:Libraries/CMSIS/Device/ST/STM32F4xx/Source/Templates/system_stm32f4xx.c ****     while((RCC->CR & RCC_CR_PLLRDY) == 0)
 392:Libraries/CMSIS/Device/ST/STM32F4xx/Source/Templates/system_stm32f4xx.c ****     {
 393:Libraries/CMSIS/Device/ST/STM32F4xx/Source/Templates/system_stm32f4xx.c ****     }
 394:Libraries/CMSIS/Device/ST/STM32F4xx/Source/Templates/system_stm32f4xx.c ****    
 395:Libraries/CMSIS/Device/ST/STM32F4xx/Source/Templates/system_stm32f4xx.c ****     /* Configure Flash prefetch, Instruction cache, Data cache and wait state */
 396:Libraries/CMSIS/Device/ST/STM32F4xx/Source/Templates/system_stm32f4xx.c ****     FLASH->ACR = FLASH_ACR_ICEN |FLASH_ACR_DCEN |FLASH_ACR_LATENCY_5WS;
 397:Libraries/CMSIS/Device/ST/STM32F4xx/Source/Templates/system_stm32f4xx.c **** 
 398:Libraries/CMSIS/Device/ST/STM32F4xx/Source/Templates/system_stm32f4xx.c ****     /* Select the main PLL as system clock source */
 399:Libraries/CMSIS/Device/ST/STM32F4xx/Source/Templates/system_stm32f4xx.c ****     RCC->CFGR &= (uint32_t)((uint32_t)~(RCC_CFGR_SW));
 400:Libraries/CMSIS/Device/ST/STM32F4xx/Source/Templates/system_stm32f4xx.c ****     RCC->CFGR |= RCC_CFGR_SW_PLL;
 401:Libraries/CMSIS/Device/ST/STM32F4xx/Source/Templates/system_stm32f4xx.c **** 
 402:Libraries/CMSIS/Device/ST/STM32F4xx/Source/Templates/system_stm32f4xx.c ****     /* Wait till the main PLL is used as system clock source */
 403:Libraries/CMSIS/Device/ST/STM32F4xx/Source/Templates/system_stm32f4xx.c ****     while ((RCC->CFGR & (uint32_t)RCC_CFGR_SWS ) != RCC_CFGR_SWS_PLL);
 404:Libraries/CMSIS/Device/ST/STM32F4xx/Source/Templates/system_stm32f4xx.c ****     {
 405:Libraries/CMSIS/Device/ST/STM32F4xx/Source/Templates/system_stm32f4xx.c ****     }
 406:Libraries/CMSIS/Device/ST/STM32F4xx/Source/Templates/system_stm32f4xx.c ****   }
 407:Libraries/CMSIS/Device/ST/STM32F4xx/Source/Templates/system_stm32f4xx.c ****   else
 408:Libraries/CMSIS/Device/ST/STM32F4xx/Source/Templates/system_stm32f4xx.c ****   { /* If HSE fails to start-up, the application will have wrong clock
 409:Libraries/CMSIS/Device/ST/STM32F4xx/Source/Templates/system_stm32f4xx.c ****          configuration. User can add here some code to deal with this error */
 410:Libraries/CMSIS/Device/ST/STM32F4xx/Source/Templates/system_stm32f4xx.c ****   }
 411:Libraries/CMSIS/Device/ST/STM32F4xx/Source/Templates/system_stm32f4xx.c **** 
 412:Libraries/CMSIS/Device/ST/STM32F4xx/Source/Templates/system_stm32f4xx.c **** }
  93              		.loc 1 412 1 view .LVU26
  94 0042 02B0     		add	sp, sp, #8
  95              	.LCFI1:
  96              		.cfi_remember_state
  97              		.cfi_def_cfa_offset 0
  98              		@ sp needed
  99 0044 7047     		bx	lr
 100              	.L4:
 101              	.LCFI2:
 102              		.cfi_restore_state
ARM GAS  C:\Users\Admin\AppData\Local\Temp\ccFgkfnz.s 			page 10


 365:Libraries/CMSIS/Device/ST/STM32F4xx/Source/Templates/system_stm32f4xx.c ****   }
 103              		.loc 1 365 5 is_stmt 1 view .LVU27
 365:Libraries/CMSIS/Device/ST/STM32F4xx/Source/Templates/system_stm32f4xx.c ****   }
 104              		.loc 1 365 15 is_stmt 0 view .LVU28
 105 0046 0023     		movs	r3, #0
 106 0048 0093     		str	r3, [sp]
 107 004a F7E7     		b	.L5
 108              	.L10:
 371:Libraries/CMSIS/Device/ST/STM32F4xx/Source/Templates/system_stm32f4xx.c ****     PWR->CR |= PWR_CR_VOS;
 109              		.loc 1 371 5 is_stmt 1 view .LVU29
 371:Libraries/CMSIS/Device/ST/STM32F4xx/Source/Templates/system_stm32f4xx.c ****     PWR->CR |= PWR_CR_VOS;
 110              		.loc 1 371 18 is_stmt 0 view .LVU30
 111 004c 194B     		ldr	r3, .L11
 112 004e 1A6C     		ldr	r2, [r3, #64]
 113 0050 42F08052 		orr	r2, r2, #268435456
 114 0054 1A64     		str	r2, [r3, #64]
 372:Libraries/CMSIS/Device/ST/STM32F4xx/Source/Templates/system_stm32f4xx.c **** 
 115              		.loc 1 372 5 is_stmt 1 view .LVU31
 372:Libraries/CMSIS/Device/ST/STM32F4xx/Source/Templates/system_stm32f4xx.c **** 
 116              		.loc 1 372 13 is_stmt 0 view .LVU32
 117 0056 1849     		ldr	r1, .L11+4
 118 0058 0A68     		ldr	r2, [r1]
 119 005a 42F48042 		orr	r2, r2, #16384
 120 005e 0A60     		str	r2, [r1]
 375:Libraries/CMSIS/Device/ST/STM32F4xx/Source/Templates/system_stm32f4xx.c ****       
 121              		.loc 1 375 5 is_stmt 1 view .LVU33
 375:Libraries/CMSIS/Device/ST/STM32F4xx/Source/Templates/system_stm32f4xx.c ****       
 122              		.loc 1 375 15 is_stmt 0 view .LVU34
 123 0060 9A68     		ldr	r2, [r3, #8]
 124 0062 9A60     		str	r2, [r3, #8]
 378:Libraries/CMSIS/Device/ST/STM32F4xx/Source/Templates/system_stm32f4xx.c ****     
 125              		.loc 1 378 5 is_stmt 1 view .LVU35
 378:Libraries/CMSIS/Device/ST/STM32F4xx/Source/Templates/system_stm32f4xx.c ****     
 126              		.loc 1 378 15 is_stmt 0 view .LVU36
 127 0064 9A68     		ldr	r2, [r3, #8]
 128 0066 42F40042 		orr	r2, r2, #32768
 129 006a 9A60     		str	r2, [r3, #8]
 381:Libraries/CMSIS/Device/ST/STM32F4xx/Source/Templates/system_stm32f4xx.c **** 
 130              		.loc 1 381 5 is_stmt 1 view .LVU37
 381:Libraries/CMSIS/Device/ST/STM32F4xx/Source/Templates/system_stm32f4xx.c **** 
 131              		.loc 1 381 15 is_stmt 0 view .LVU38
 132 006c 9A68     		ldr	r2, [r3, #8]
 133 006e 42F4A052 		orr	r2, r2, #5120
 134 0072 9A60     		str	r2, [r3, #8]
 384:Libraries/CMSIS/Device/ST/STM32F4xx/Source/Templates/system_stm32f4xx.c ****                    (RCC_PLLCFGR_PLLSRC_HSE) | (PLL_Q << 24);
 135              		.loc 1 384 5 is_stmt 1 view .LVU39
 384:Libraries/CMSIS/Device/ST/STM32F4xx/Source/Templates/system_stm32f4xx.c ****                    (RCC_PLLCFGR_PLLSRC_HSE) | (PLL_Q << 24);
 136              		.loc 1 384 18 is_stmt 0 view .LVU40
 137 0074 114A     		ldr	r2, .L11+8
 138 0076 5A60     		str	r2, [r3, #4]
 388:Libraries/CMSIS/Device/ST/STM32F4xx/Source/Templates/system_stm32f4xx.c **** 
 139              		.loc 1 388 5 is_stmt 1 view .LVU41
 388:Libraries/CMSIS/Device/ST/STM32F4xx/Source/Templates/system_stm32f4xx.c **** 
 140              		.loc 1 388 13 is_stmt 0 view .LVU42
 141 0078 1A68     		ldr	r2, [r3]
 142 007a 42F08072 		orr	r2, r2, #16777216
 143 007e 1A60     		str	r2, [r3]
ARM GAS  C:\Users\Admin\AppData\Local\Temp\ccFgkfnz.s 			page 11


 391:Libraries/CMSIS/Device/ST/STM32F4xx/Source/Templates/system_stm32f4xx.c ****     {
 144              		.loc 1 391 5 is_stmt 1 view .LVU43
 145              	.L7:
 393:Libraries/CMSIS/Device/ST/STM32F4xx/Source/Templates/system_stm32f4xx.c ****    
 146              		.loc 1 393 5 discriminator 1 view .LVU44
 391:Libraries/CMSIS/Device/ST/STM32F4xx/Source/Templates/system_stm32f4xx.c ****     {
 147              		.loc 1 391 10 discriminator 1 view .LVU45
 391:Libraries/CMSIS/Device/ST/STM32F4xx/Source/Templates/system_stm32f4xx.c ****     {
 148              		.loc 1 391 15 is_stmt 0 discriminator 1 view .LVU46
 149 0080 0C4B     		ldr	r3, .L11
 150 0082 1B68     		ldr	r3, [r3]
 391:Libraries/CMSIS/Device/ST/STM32F4xx/Source/Templates/system_stm32f4xx.c ****     {
 151              		.loc 1 391 10 discriminator 1 view .LVU47
 152 0084 13F0007F 		tst	r3, #33554432
 153 0088 FAD0     		beq	.L7
 396:Libraries/CMSIS/Device/ST/STM32F4xx/Source/Templates/system_stm32f4xx.c **** 
 154              		.loc 1 396 5 is_stmt 1 view .LVU48
 396:Libraries/CMSIS/Device/ST/STM32F4xx/Source/Templates/system_stm32f4xx.c **** 
 155              		.loc 1 396 16 is_stmt 0 view .LVU49
 156 008a 0D4B     		ldr	r3, .L11+12
 157 008c 40F20562 		movw	r2, #1541
 158 0090 1A60     		str	r2, [r3]
 399:Libraries/CMSIS/Device/ST/STM32F4xx/Source/Templates/system_stm32f4xx.c ****     RCC->CFGR |= RCC_CFGR_SW_PLL;
 159              		.loc 1 399 5 is_stmt 1 view .LVU50
 399:Libraries/CMSIS/Device/ST/STM32F4xx/Source/Templates/system_stm32f4xx.c ****     RCC->CFGR |= RCC_CFGR_SW_PLL;
 160              		.loc 1 399 15 is_stmt 0 view .LVU51
 161 0092 A3F58063 		sub	r3, r3, #1024
 162 0096 9A68     		ldr	r2, [r3, #8]
 163 0098 22F00302 		bic	r2, r2, #3
 164 009c 9A60     		str	r2, [r3, #8]
 400:Libraries/CMSIS/Device/ST/STM32F4xx/Source/Templates/system_stm32f4xx.c **** 
 165              		.loc 1 400 5 is_stmt 1 view .LVU52
 400:Libraries/CMSIS/Device/ST/STM32F4xx/Source/Templates/system_stm32f4xx.c **** 
 166              		.loc 1 400 15 is_stmt 0 view .LVU53
 167 009e 9A68     		ldr	r2, [r3, #8]
 168 00a0 42F00202 		orr	r2, r2, #2
 169 00a4 9A60     		str	r2, [r3, #8]
 403:Libraries/CMSIS/Device/ST/STM32F4xx/Source/Templates/system_stm32f4xx.c ****     {
 170              		.loc 1 403 5 is_stmt 1 view .LVU54
 171              	.L8:
 403:Libraries/CMSIS/Device/ST/STM32F4xx/Source/Templates/system_stm32f4xx.c ****     {
 172              		.loc 1 403 70 discriminator 1 view .LVU55
 403:Libraries/CMSIS/Device/ST/STM32F4xx/Source/Templates/system_stm32f4xx.c ****     {
 173              		.loc 1 403 11 discriminator 1 view .LVU56
 403:Libraries/CMSIS/Device/ST/STM32F4xx/Source/Templates/system_stm32f4xx.c ****     {
 174              		.loc 1 403 16 is_stmt 0 discriminator 1 view .LVU57
 175 00a6 034B     		ldr	r3, .L11
 176 00a8 9B68     		ldr	r3, [r3, #8]
 403:Libraries/CMSIS/Device/ST/STM32F4xx/Source/Templates/system_stm32f4xx.c ****     {
 177              		.loc 1 403 23 discriminator 1 view .LVU58
 178 00aa 03F00C03 		and	r3, r3, #12
 403:Libraries/CMSIS/Device/ST/STM32F4xx/Source/Templates/system_stm32f4xx.c ****     {
 179              		.loc 1 403 11 discriminator 1 view .LVU59
 180 00ae 082B     		cmp	r3, #8
 181 00b0 F9D1     		bne	.L8
 182 00b2 C6E7     		b	.L1
 183              	.L12:
ARM GAS  C:\Users\Admin\AppData\Local\Temp\ccFgkfnz.s 			page 12


 184              		.align	2
 185              	.L11:
 186 00b4 00380240 		.word	1073887232
 187 00b8 00700040 		.word	1073770496
 188 00bc 08544004 		.word	71324680
 189 00c0 003C0240 		.word	1073888256
 190              		.cfi_endproc
 191              	.LFE132:
 193              		.section	.text.SystemInit,"ax",%progbits
 194              		.align	1
 195              		.global	SystemInit
 196              		.syntax unified
 197              		.thumb
 198              		.thumb_func
 199              		.fpu fpv4-sp-d16
 201              	SystemInit:
 202              	.LFB130:
 209:Libraries/CMSIS/Device/ST/STM32F4xx/Source/Templates/system_stm32f4xx.c ****   /* FPU settings ------------------------------------------------------------*/
 203              		.loc 1 209 1 is_stmt 1 view -0
 204              		.cfi_startproc
 205              		@ args = 0, pretend = 0, frame = 0
 206              		@ frame_needed = 0, uses_anonymous_args = 0
 207 0000 10B5     		push	{r4, lr}
 208              	.LCFI3:
 209              		.cfi_def_cfa_offset 8
 210              		.cfi_offset 4, -8
 211              		.cfi_offset 14, -4
 212:Libraries/CMSIS/Device/ST/STM32F4xx/Source/Templates/system_stm32f4xx.c ****   #endif
 212              		.loc 1 212 5 view .LVU61
 212:Libraries/CMSIS/Device/ST/STM32F4xx/Source/Templates/system_stm32f4xx.c ****   #endif
 213              		.loc 1 212 16 is_stmt 0 view .LVU62
 214 0002 104C     		ldr	r4, .L15
 215 0004 D4F88830 		ldr	r3, [r4, #136]
 216 0008 43F47003 		orr	r3, r3, #15728640
 217 000c C4F88830 		str	r3, [r4, #136]
 217:Libraries/CMSIS/Device/ST/STM32F4xx/Source/Templates/system_stm32f4xx.c **** 
 218              		.loc 1 217 3 is_stmt 1 view .LVU63
 217:Libraries/CMSIS/Device/ST/STM32F4xx/Source/Templates/system_stm32f4xx.c **** 
 219              		.loc 1 217 11 is_stmt 0 view .LVU64
 220 0010 0D4B     		ldr	r3, .L15+4
 221 0012 1A68     		ldr	r2, [r3]
 222 0014 42F00102 		orr	r2, r2, #1
 223 0018 1A60     		str	r2, [r3]
 220:Libraries/CMSIS/Device/ST/STM32F4xx/Source/Templates/system_stm32f4xx.c **** 
 224              		.loc 1 220 3 is_stmt 1 view .LVU65
 220:Libraries/CMSIS/Device/ST/STM32F4xx/Source/Templates/system_stm32f4xx.c **** 
 225              		.loc 1 220 13 is_stmt 0 view .LVU66
 226 001a 0021     		movs	r1, #0
 227 001c 9960     		str	r1, [r3, #8]
 223:Libraries/CMSIS/Device/ST/STM32F4xx/Source/Templates/system_stm32f4xx.c **** 
 228              		.loc 1 223 3 is_stmt 1 view .LVU67
 223:Libraries/CMSIS/Device/ST/STM32F4xx/Source/Templates/system_stm32f4xx.c **** 
 229              		.loc 1 223 11 is_stmt 0 view .LVU68
 230 001e 1A68     		ldr	r2, [r3]
 231 0020 22F08472 		bic	r2, r2, #17301504
 232 0024 22F48032 		bic	r2, r2, #65536
 233 0028 1A60     		str	r2, [r3]
ARM GAS  C:\Users\Admin\AppData\Local\Temp\ccFgkfnz.s 			page 13


 226:Libraries/CMSIS/Device/ST/STM32F4xx/Source/Templates/system_stm32f4xx.c **** 
 234              		.loc 1 226 3 is_stmt 1 view .LVU69
 226:Libraries/CMSIS/Device/ST/STM32F4xx/Source/Templates/system_stm32f4xx.c **** 
 235              		.loc 1 226 16 is_stmt 0 view .LVU70
 236 002a 084A     		ldr	r2, .L15+8
 237 002c 5A60     		str	r2, [r3, #4]
 229:Libraries/CMSIS/Device/ST/STM32F4xx/Source/Templates/system_stm32f4xx.c **** 
 238              		.loc 1 229 3 is_stmt 1 view .LVU71
 229:Libraries/CMSIS/Device/ST/STM32F4xx/Source/Templates/system_stm32f4xx.c **** 
 239              		.loc 1 229 11 is_stmt 0 view .LVU72
 240 002e 1A68     		ldr	r2, [r3]
 241 0030 22F48022 		bic	r2, r2, #262144
 242 0034 1A60     		str	r2, [r3]
 232:Libraries/CMSIS/Device/ST/STM32F4xx/Source/Templates/system_stm32f4xx.c **** 
 243              		.loc 1 232 3 is_stmt 1 view .LVU73
 232:Libraries/CMSIS/Device/ST/STM32F4xx/Source/Templates/system_stm32f4xx.c **** 
 244              		.loc 1 232 12 is_stmt 0 view .LVU74
 245 0036 D960     		str	r1, [r3, #12]
 240:Libraries/CMSIS/Device/ST/STM32F4xx/Source/Templates/system_stm32f4xx.c **** 
 246              		.loc 1 240 3 is_stmt 1 view .LVU75
 247 0038 FFF7FEFF 		bl	SetSysClock
 248              	.LVL0:
 246:Libraries/CMSIS/Device/ST/STM32F4xx/Source/Templates/system_stm32f4xx.c **** #endif
 249              		.loc 1 246 3 view .LVU76
 246:Libraries/CMSIS/Device/ST/STM32F4xx/Source/Templates/system_stm32f4xx.c **** #endif
 250              		.loc 1 246 13 is_stmt 0 view .LVU77
 251 003c 4FF00063 		mov	r3, #134217728
 252 0040 A360     		str	r3, [r4, #8]
 248:Libraries/CMSIS/Device/ST/STM32F4xx/Source/Templates/system_stm32f4xx.c **** 
 253              		.loc 1 248 1 view .LVU78
 254 0042 10BD     		pop	{r4, pc}
 255              	.L16:
 256              		.align	2
 257              	.L15:
 258 0044 00ED00E0 		.word	-536810240
 259 0048 00380240 		.word	1073887232
 260 004c 10300024 		.word	603992080
 261              		.cfi_endproc
 262              	.LFE130:
 264              		.section	.text.SystemCoreClockUpdate,"ax",%progbits
 265              		.align	1
 266              		.global	SystemCoreClockUpdate
 267              		.syntax unified
 268              		.thumb
 269              		.thumb_func
 270              		.fpu fpv4-sp-d16
 272              	SystemCoreClockUpdate:
 273              	.LFB131:
 287:Libraries/CMSIS/Device/ST/STM32F4xx/Source/Templates/system_stm32f4xx.c ****   uint32_t tmp = 0, pllvco = 0, pllp = 2, pllsource = 0, pllm = 2;
 274              		.loc 1 287 1 is_stmt 1 view -0
 275              		.cfi_startproc
 276              		@ args = 0, pretend = 0, frame = 0
 277              		@ frame_needed = 0, uses_anonymous_args = 0
 278              		@ link register save eliminated.
 288:Libraries/CMSIS/Device/ST/STM32F4xx/Source/Templates/system_stm32f4xx.c ****   
 279              		.loc 1 288 3 view .LVU80
 280              	.LVL1:
ARM GAS  C:\Users\Admin\AppData\Local\Temp\ccFgkfnz.s 			page 14


 291:Libraries/CMSIS/Device/ST/STM32F4xx/Source/Templates/system_stm32f4xx.c **** 
 281              		.loc 1 291 3 view .LVU81
 291:Libraries/CMSIS/Device/ST/STM32F4xx/Source/Templates/system_stm32f4xx.c **** 
 282              		.loc 1 291 12 is_stmt 0 view .LVU82
 283 0000 224B     		ldr	r3, .L25
 284 0002 9B68     		ldr	r3, [r3, #8]
 291:Libraries/CMSIS/Device/ST/STM32F4xx/Source/Templates/system_stm32f4xx.c **** 
 285              		.loc 1 291 7 view .LVU83
 286 0004 03F00C03 		and	r3, r3, #12
 287              	.LVL2:
 293:Libraries/CMSIS/Device/ST/STM32F4xx/Source/Templates/system_stm32f4xx.c ****   {
 288              		.loc 1 293 3 is_stmt 1 view .LVU84
 289 0008 042B     		cmp	r3, #4
 290 000a 15D0     		beq	.L18
 291 000c 082B     		cmp	r3, #8
 292 000e 17D0     		beq	.L19
 293 0010 1BB1     		cbz	r3, .L24
 324:Libraries/CMSIS/Device/ST/STM32F4xx/Source/Templates/system_stm32f4xx.c ****       break;
 294              		.loc 1 324 7 view .LVU85
 324:Libraries/CMSIS/Device/ST/STM32F4xx/Source/Templates/system_stm32f4xx.c ****       break;
 295              		.loc 1 324 23 is_stmt 0 view .LVU86
 296 0012 1F4B     		ldr	r3, .L25+4
 297              	.LVL3:
 324:Libraries/CMSIS/Device/ST/STM32F4xx/Source/Templates/system_stm32f4xx.c ****       break;
 298              		.loc 1 324 23 view .LVU87
 299 0014 1F4A     		ldr	r2, .L25+8
 300 0016 1A60     		str	r2, [r3]
 325:Libraries/CMSIS/Device/ST/STM32F4xx/Source/Templates/system_stm32f4xx.c ****   }
 301              		.loc 1 325 7 is_stmt 1 view .LVU88
 302 0018 02E0     		b	.L21
 303              	.LVL4:
 304              	.L24:
 296:Libraries/CMSIS/Device/ST/STM32F4xx/Source/Templates/system_stm32f4xx.c ****       break;
 305              		.loc 1 296 7 view .LVU89
 296:Libraries/CMSIS/Device/ST/STM32F4xx/Source/Templates/system_stm32f4xx.c ****       break;
 306              		.loc 1 296 23 is_stmt 0 view .LVU90
 307 001a 1D4B     		ldr	r3, .L25+4
 308              	.LVL5:
 296:Libraries/CMSIS/Device/ST/STM32F4xx/Source/Templates/system_stm32f4xx.c ****       break;
 309              		.loc 1 296 23 view .LVU91
 310 001c 1D4A     		ldr	r2, .L25+8
 311 001e 1A60     		str	r2, [r3]
 297:Libraries/CMSIS/Device/ST/STM32F4xx/Source/Templates/system_stm32f4xx.c ****     case 0x04:  /* HSE used as system clock source */
 312              		.loc 1 297 7 is_stmt 1 view .LVU92
 313              	.LVL6:
 314              	.L21:
 329:Libraries/CMSIS/Device/ST/STM32F4xx/Source/Templates/system_stm32f4xx.c ****   /* HCLK frequency */
 315              		.loc 1 329 3 view .LVU93
 329:Libraries/CMSIS/Device/ST/STM32F4xx/Source/Templates/system_stm32f4xx.c ****   /* HCLK frequency */
 316              		.loc 1 329 28 is_stmt 0 view .LVU94
 317 0020 1A4B     		ldr	r3, .L25
 318 0022 9B68     		ldr	r3, [r3, #8]
 329:Libraries/CMSIS/Device/ST/STM32F4xx/Source/Templates/system_stm32f4xx.c ****   /* HCLK frequency */
 319              		.loc 1 329 52 view .LVU95
 320 0024 C3F30313 		ubfx	r3, r3, #4, #4
 329:Libraries/CMSIS/Device/ST/STM32F4xx/Source/Templates/system_stm32f4xx.c ****   /* HCLK frequency */
 321              		.loc 1 329 22 view .LVU96
ARM GAS  C:\Users\Admin\AppData\Local\Temp\ccFgkfnz.s 			page 15


 322 0028 1B4A     		ldr	r2, .L25+12
 323 002a D35C     		ldrb	r3, [r2, r3]	@ zero_extendqisi2
 324 002c DAB2     		uxtb	r2, r3
 325              	.LVL7:
 331:Libraries/CMSIS/Device/ST/STM32F4xx/Source/Templates/system_stm32f4xx.c **** }
 326              		.loc 1 331 3 is_stmt 1 view .LVU97
 331:Libraries/CMSIS/Device/ST/STM32F4xx/Source/Templates/system_stm32f4xx.c **** }
 327              		.loc 1 331 19 is_stmt 0 view .LVU98
 328 002e 1849     		ldr	r1, .L25+4
 329 0030 0B68     		ldr	r3, [r1]
 330 0032 D340     		lsrs	r3, r3, r2
 331 0034 0B60     		str	r3, [r1]
 332:Libraries/CMSIS/Device/ST/STM32F4xx/Source/Templates/system_stm32f4xx.c **** 
 332              		.loc 1 332 1 view .LVU99
 333 0036 7047     		bx	lr
 334              	.LVL8:
 335              	.L18:
 299:Libraries/CMSIS/Device/ST/STM32F4xx/Source/Templates/system_stm32f4xx.c ****       break;
 336              		.loc 1 299 7 is_stmt 1 view .LVU100
 299:Libraries/CMSIS/Device/ST/STM32F4xx/Source/Templates/system_stm32f4xx.c ****       break;
 337              		.loc 1 299 23 is_stmt 0 view .LVU101
 338 0038 154B     		ldr	r3, .L25+4
 339              	.LVL9:
 299:Libraries/CMSIS/Device/ST/STM32F4xx/Source/Templates/system_stm32f4xx.c ****       break;
 340              		.loc 1 299 23 view .LVU102
 341 003a 184A     		ldr	r2, .L25+16
 342 003c 1A60     		str	r2, [r3]
 300:Libraries/CMSIS/Device/ST/STM32F4xx/Source/Templates/system_stm32f4xx.c ****     case 0x08:  /* PLL used as system clock source */
 343              		.loc 1 300 7 is_stmt 1 view .LVU103
 344 003e EFE7     		b	.L21
 345              	.LVL10:
 346              	.L19:
 306:Libraries/CMSIS/Device/ST/STM32F4xx/Source/Templates/system_stm32f4xx.c ****       pllm = RCC->PLLCFGR & RCC_PLLCFGR_PLLM;
 347              		.loc 1 306 7 view .LVU104
 306:Libraries/CMSIS/Device/ST/STM32F4xx/Source/Templates/system_stm32f4xx.c ****       pllm = RCC->PLLCFGR & RCC_PLLCFGR_PLLM;
 348              		.loc 1 306 23 is_stmt 0 view .LVU105
 349 0040 124B     		ldr	r3, .L25
 350              	.LVL11:
 306:Libraries/CMSIS/Device/ST/STM32F4xx/Source/Templates/system_stm32f4xx.c ****       pllm = RCC->PLLCFGR & RCC_PLLCFGR_PLLM;
 351              		.loc 1 306 23 view .LVU106
 352 0042 5968     		ldr	r1, [r3, #4]
 353              	.LVL12:
 307:Libraries/CMSIS/Device/ST/STM32F4xx/Source/Templates/system_stm32f4xx.c ****       
 354              		.loc 1 307 7 is_stmt 1 view .LVU107
 307:Libraries/CMSIS/Device/ST/STM32F4xx/Source/Templates/system_stm32f4xx.c ****       
 355              		.loc 1 307 17 is_stmt 0 view .LVU108
 356 0044 5A68     		ldr	r2, [r3, #4]
 307:Libraries/CMSIS/Device/ST/STM32F4xx/Source/Templates/system_stm32f4xx.c ****       
 357              		.loc 1 307 12 view .LVU109
 358 0046 02F03F02 		and	r2, r2, #63
 359              	.LVL13:
 309:Libraries/CMSIS/Device/ST/STM32F4xx/Source/Templates/system_stm32f4xx.c ****       {
 360              		.loc 1 309 7 is_stmt 1 view .LVU110
 309:Libraries/CMSIS/Device/ST/STM32F4xx/Source/Templates/system_stm32f4xx.c ****       {
 361              		.loc 1 309 10 is_stmt 0 view .LVU111
 362 004a 11F4800F 		tst	r1, #4194304
 363 004e 13D0     		beq	.L22
ARM GAS  C:\Users\Admin\AppData\Local\Temp\ccFgkfnz.s 			page 16


 312:Libraries/CMSIS/Device/ST/STM32F4xx/Source/Templates/system_stm32f4xx.c ****       }
 364              		.loc 1 312 9 is_stmt 1 view .LVU112
 312:Libraries/CMSIS/Device/ST/STM32F4xx/Source/Templates/system_stm32f4xx.c ****       }
 365              		.loc 1 312 29 is_stmt 0 view .LVU113
 366 0050 124B     		ldr	r3, .L25+16
 367 0052 B3FBF2F3 		udiv	r3, r3, r2
 312:Libraries/CMSIS/Device/ST/STM32F4xx/Source/Templates/system_stm32f4xx.c ****       }
 368              		.loc 1 312 44 view .LVU114
 369 0056 0D4A     		ldr	r2, .L25
 370              	.LVL14:
 312:Libraries/CMSIS/Device/ST/STM32F4xx/Source/Templates/system_stm32f4xx.c ****       }
 371              		.loc 1 312 44 view .LVU115
 372 0058 5268     		ldr	r2, [r2, #4]
 312:Libraries/CMSIS/Device/ST/STM32F4xx/Source/Templates/system_stm32f4xx.c ****       }
 373              		.loc 1 312 74 view .LVU116
 374 005a C2F38812 		ubfx	r2, r2, #6, #9
 312:Libraries/CMSIS/Device/ST/STM32F4xx/Source/Templates/system_stm32f4xx.c ****       }
 375              		.loc 1 312 16 view .LVU117
 376 005e 02FB03F3 		mul	r3, r2, r3
 377              	.LVL15:
 378              	.L23:
 320:Libraries/CMSIS/Device/ST/STM32F4xx/Source/Templates/system_stm32f4xx.c ****       SystemCoreClock = pllvco/pllp;
 379              		.loc 1 320 7 is_stmt 1 view .LVU118
 320:Libraries/CMSIS/Device/ST/STM32F4xx/Source/Templates/system_stm32f4xx.c ****       SystemCoreClock = pllvco/pllp;
 380              		.loc 1 320 20 is_stmt 0 view .LVU119
 381 0062 0A4A     		ldr	r2, .L25
 382 0064 5268     		ldr	r2, [r2, #4]
 320:Libraries/CMSIS/Device/ST/STM32F4xx/Source/Templates/system_stm32f4xx.c ****       SystemCoreClock = pllvco/pllp;
 383              		.loc 1 320 50 view .LVU120
 384 0066 C2F30142 		ubfx	r2, r2, #16, #2
 320:Libraries/CMSIS/Device/ST/STM32F4xx/Source/Templates/system_stm32f4xx.c ****       SystemCoreClock = pllvco/pllp;
 385              		.loc 1 320 56 view .LVU121
 386 006a 0132     		adds	r2, r2, #1
 320:Libraries/CMSIS/Device/ST/STM32F4xx/Source/Templates/system_stm32f4xx.c ****       SystemCoreClock = pllvco/pllp;
 387              		.loc 1 320 12 view .LVU122
 388 006c 5200     		lsls	r2, r2, #1
 389              	.LVL16:
 321:Libraries/CMSIS/Device/ST/STM32F4xx/Source/Templates/system_stm32f4xx.c ****       break;
 390              		.loc 1 321 7 is_stmt 1 view .LVU123
 321:Libraries/CMSIS/Device/ST/STM32F4xx/Source/Templates/system_stm32f4xx.c ****       break;
 391              		.loc 1 321 31 is_stmt 0 view .LVU124
 392 006e B3FBF2F3 		udiv	r3, r3, r2
 393              	.LVL17:
 321:Libraries/CMSIS/Device/ST/STM32F4xx/Source/Templates/system_stm32f4xx.c ****       break;
 394              		.loc 1 321 23 view .LVU125
 395 0072 074A     		ldr	r2, .L25+4
 396              	.LVL18:
 321:Libraries/CMSIS/Device/ST/STM32F4xx/Source/Templates/system_stm32f4xx.c ****       break;
 397              		.loc 1 321 23 view .LVU126
 398 0074 1360     		str	r3, [r2]
 322:Libraries/CMSIS/Device/ST/STM32F4xx/Source/Templates/system_stm32f4xx.c ****     default:
 399              		.loc 1 322 7 is_stmt 1 view .LVU127
 400 0076 D3E7     		b	.L21
 401              	.LVL19:
 402              	.L22:
 317:Libraries/CMSIS/Device/ST/STM32F4xx/Source/Templates/system_stm32f4xx.c ****       }
 403              		.loc 1 317 9 view .LVU128
ARM GAS  C:\Users\Admin\AppData\Local\Temp\ccFgkfnz.s 			page 17


 317:Libraries/CMSIS/Device/ST/STM32F4xx/Source/Templates/system_stm32f4xx.c ****       }
 404              		.loc 1 317 29 is_stmt 0 view .LVU129
 405 0078 064B     		ldr	r3, .L25+8
 406 007a B3FBF2F3 		udiv	r3, r3, r2
 317:Libraries/CMSIS/Device/ST/STM32F4xx/Source/Templates/system_stm32f4xx.c ****       }
 407              		.loc 1 317 44 view .LVU130
 408 007e 034A     		ldr	r2, .L25
 409              	.LVL20:
 317:Libraries/CMSIS/Device/ST/STM32F4xx/Source/Templates/system_stm32f4xx.c ****       }
 410              		.loc 1 317 44 view .LVU131
 411 0080 5268     		ldr	r2, [r2, #4]
 317:Libraries/CMSIS/Device/ST/STM32F4xx/Source/Templates/system_stm32f4xx.c ****       }
 412              		.loc 1 317 74 view .LVU132
 413 0082 C2F38812 		ubfx	r2, r2, #6, #9
 317:Libraries/CMSIS/Device/ST/STM32F4xx/Source/Templates/system_stm32f4xx.c ****       }
 414              		.loc 1 317 16 view .LVU133
 415 0086 02FB03F3 		mul	r3, r2, r3
 416              	.LVL21:
 317:Libraries/CMSIS/Device/ST/STM32F4xx/Source/Templates/system_stm32f4xx.c ****       }
 417              		.loc 1 317 16 view .LVU134
 418 008a EAE7     		b	.L23
 419              	.L26:
 420              		.align	2
 421              	.L25:
 422 008c 00380240 		.word	1073887232
 423 0090 00000000 		.word	.LANCHOR0
 424 0094 0024F400 		.word	16000000
 425 0098 00000000 		.word	.LANCHOR1
 426 009c 40787D01 		.word	25000000
 427              		.cfi_endproc
 428              	.LFE131:
 430              		.global	AHBPrescTable
 431              		.global	SystemCoreClock
 432              		.section	.data.AHBPrescTable,"aw"
 433              		.align	2
 434              		.set	.LANCHOR1,. + 0
 437              	AHBPrescTable:
 438 0000 00000000 		.ascii	"\000\000\000\000\000\000\000\000\001\002\003\004\006"
 438      00000000 
 438      01020304 
 438      06
 439 000d 070809   		.ascii	"\007\010\011"
 440              		.section	.data.SystemCoreClock,"aw"
 441              		.align	2
 442              		.set	.LANCHOR0,. + 0
 445              	SystemCoreClock:
 446 0000 007A030A 		.word	168000000
 447              		.text
 448              	.Letext0:
 449              		.file 2 "c:\\program files (x86)\\gnu arm embedded toolchain\\10 2020-q4-major\\arm-none-eabi\\inc
 450              		.file 3 "c:\\program files (x86)\\gnu arm embedded toolchain\\10 2020-q4-major\\arm-none-eabi\\inc
 451              		.file 4 "Libraries/CMSIS/Core/Include/core_cm4.h"
 452              		.file 5 "Libraries/CMSIS/Device/ST/STM32F4xx/Include/stm32f4xx.h"
 453              		.file 6 "Libraries/CMSIS/Device/ST/STM32F4xx/Include/system_stm32f4xx.h"
ARM GAS  C:\Users\Admin\AppData\Local\Temp\ccFgkfnz.s 			page 18

